GNU gdb (Debian 13.1-3) 13.1
Copyright (C) 2023 Free Software Foundation, Inc.
License GPLv3+: GNU GPL version 3 or later <http://gnu.org/licenses/gpl.html>
This is free software: you are free to change and redistribute it.
There is NO WARRANTY, to the extent permitted by law.
Type "show copying" and "show warranty" for details.
This GDB was configured as "x86_64-linux-gnu".
Type "show configuration" for configuration details.
For bug reporting instructions, please see:
<https://www.gnu.org/software/gdb/bugs/>.
Find the GDB manual and other documentation resources online at:
    <http://www.gnu.org/software/gdb/documentation/>.

For help, type "help".
Type "apropos word" to search for commands related to "word".
(gdb) Remote debugging using localhost:3333
0x1fff0350 in ?? ()
(gdb) Dump of assembler code from 0x1fff0000 to 0x1fff4000:
   0x1fff0000:	0ffc    	lsrs	r4, r7, #31	Initial stack pointer (L)
   0x1fff0002:	1000    	asrs	r0, r0, #32	Initial stack pointer (H)
   0x1fff0004:	00a1    	lsls	r1, r4, #2	Reset vector (L; bit 0 == 1 meaning Thumb code (16 bit instructions))
   0x1fff0006:	1fff    	subs	r7, r7, #7	Reset vector (H)
   0x1fff0008:	1ffd    	subs	r5, r7, #7
   0x1fff000a:	1fff    	subs	r7, r7, #7
   0x1fff000c:	1fff    	subs	r7, r7, #7
   0x1fff000e:	1fff    	subs	r7, r7, #7
   0x1fff0010:	2001    	movs	r0, #1
   0x1fff0012:	1fff    	subs	r7, r7, #7
   0x1fff0014:	2003    	movs	r0, #3
   0x1fff0016:	1fff    	subs	r7, r7, #7
   0x1fff0018:	2005    	movs	r0, #5
   0x1fff001a:	1fff    	subs	r7, r7, #7
   0x1fff001c:	ffff ffff			@ <UNDEFINED> instruction: 0xffffffff
   0x1fff0020:	ffff ffff			@ <UNDEFINED> instruction: 0xffffffff
   0x1fff0024:	ffff ffff			@ <UNDEFINED> instruction: 0xffffffff
   0x1fff0028:	ffff ffff			@ <UNDEFINED> instruction: 0xffffffff
   0x1fff002c:	2007    	movs	r0, #7
   0x1fff002e:	1fff    	subs	r7, r7, #7
   0x1fff0030:	2009    	movs	r0, #9
   0x1fff0032:	1fff    	subs	r7, r7, #7
   0x1fff0034:	ffff ffff			@ <UNDEFINED> instruction: 0xffffffff
   0x1fff0038:	200b    	movs	r0, #11
   0x1fff003a:	1fff    	subs	r7, r7, #7
   0x1fff003c:	200d    	movs	r0, #13
   0x1fff003e:	1fff    	subs	r7, r7, #7
   0x1fff0040:	ffff ffff			@ <UNDEFINED> instruction: 0xffffffff
   0x1fff0044:	ffff ffff			@ <UNDEFINED> instruction: 0xffffffff
   0x1fff0048:	ffff ffff			@ <UNDEFINED> instruction: 0xffffffff
   0x1fff004c:	ffff ffff			@ <UNDEFINED> instruction: 0xffffffff
   0x1fff0050:	ffff ffff			@ <UNDEFINED> instruction: 0xffffffff
   0x1fff0054:	ffff ffff			@ <UNDEFINED> instruction: 0xffffffff
   0x1fff0058:	ffff ffff			@ <UNDEFINED> instruction: 0xffffffff
   0x1fff005c:	ffff ffff			@ <UNDEFINED> instruction: 0xffffffff
   0x1fff0060:	ffff ffff			@ <UNDEFINED> instruction: 0xffffffff
   0x1fff0064:	ffff ffff			@ <UNDEFINED> instruction: 0xffffffff
   0x1fff0068:	ffff ffff			@ <UNDEFINED> instruction: 0xffffffff
   0x1fff006c:	ffff ffff			@ <UNDEFINED> instruction: 0xffffffff
   0x1fff0070:	ffff ffff			@ <UNDEFINED> instruction: 0xffffffff
   0x1fff0074:	ffff ffff			@ <UNDEFINED> instruction: 0xffffffff
   0x1fff0078:	ffff ffff			@ <UNDEFINED> instruction: 0xffffffff
   0x1fff007c:	ffff ffff			@ <UNDEFINED> instruction: 0xffffffff
   0x1fff0080:	ffff ffff			@ <UNDEFINED> instruction: 0xffffffff
   0x1fff0084:	ffff ffff			@ <UNDEFINED> instruction: 0xffffffff
   0x1fff0088:	ffff ffff			@ <UNDEFINED> instruction: 0xffffffff
   0x1fff008c:	ffff ffff			@ <UNDEFINED> instruction: 0xffffffff
   0x1fff0090:	ffff ffff			@ <UNDEFINED> instruction: 0xffffffff
   0x1fff0094:	ffff ffff			@ <UNDEFINED> instruction: 0xffffffff
   0x1fff0098:	3cf7    	subs	r4, #247	@ 0xf7
   0x1fff009a:	2000    	movs	r0, #0
   0x1fff009c:	3cf7    	subs	r4, #247	@ 0xf7
   0x1fff009e:	2000    	movs	r0, #0

Reset: {{{
   0x1fff00a0:	4a00    	ldr	r2, [pc, #0]	@ (0x1fff00a4)		Reset vector target. Load address 1fff00a8 (thumb code)	Time: 0+2
   0x1fff00a2:	4710    	bx	r2					Jump over data	Time: 2+3
   data {{{
   0x1fff00a4:	00a9    	lsls	r1, r5, #2				Data: Branch target (L)
   0x1fff00a6:	1fff    	subs	r7, r7, #7				Data: Branch target (H)	
   }}}
   Store CRP2 (if any CRP was set) or actual value (otherwise) in 400483f0: System control block, undocumented register {{{
   0x1fff00a8:	4a1a    	ldr	r2, [pc, #104]	@ (0x1fff0114)		r2 = 400483f0			r2 glitch window start	Time: 5+2
   0x1fff00aa:	4b1b    	ldr	r3, [pc, #108]	@ (0x1fff0118)		r3 = 1fff0128			|	r3 glitch window start	Time: 7+2
   0x1fff00ac:	681b    	ldr	r3, [r3, #0]				r3 = 000002fc			|	|	Code protection level address. r3 may still be glitched after this line Time: 9+2
   0x1fff00ae:	4d1c    	ldr	r5, [pc, #112]	@ (0x1fff0120)		r5 = 1fff0130			|	|	r5 glitch window start	Time: 11+2
   0x1fff00b0:	682d    	ldr	r5, [r5, #0]				r5 = 43218765	CRP3		|	|	|	r5 may still be glitched after this line	Time: 13+2
   0x1fff00b2:	4e1c    	ldr	r6, [pc, #112]	@ (0x1fff0124)		r6 = 1fff0134			|	|	|	this is irrelevant for devices with CRP3 enabled	Time: 15+2
   0x1fff00b4:	6836    	ldr	r6, [r6, #0]				r6 = 12345678	CRP1		|	|	|	this is irrelevant for devices with CRP3 enabled	Time: 17+2
   0x1fff00b6:	681c    	ldr	r4, [r3, #0]				r4 = *2fc			|	r3 end	|	r4 glitch window start; Read code protection level	Time: 19+2
   0x1fff00b8:	42ac    	cmp	r4, r5					Compare CRP to CRP3		|		r4 glitch window end; r5 glitch window end; equal flag glitch window start	Time: 21+1
   0x1fff00ba:	d001    	beq.n	0x1fff00c0				If equal, branch		|		equal flag glitch window end	Time: 22+1 or 22+3
   0x1fff00bc:	42b4    	cmp	r4, r6					Compare CRP to CRP1		|		this is irrelevant for devices with CRP3 enabled	Time: 23+1
   0x1fff00be:	d101    	bne.n	0x1fff00c4				If not equal, jump		|		this is irrelevant for devices with CRP3 enabled	Time: 24+3 (this is never equal for devices with CRP3 enabled)
   0x1fff00c0:	4c16    	ldr	r4, [pc, #88]	@ (0x1fff011c)		CRP3 or CRP1			|		r4 glitch window start	Time: 25+2 (Both paths to get here take 3 cycles)
   0x1fff00c2:	6824    	ldr	r4, [r4, #0]				r4 = 87654321	CRP2		|		|	r4 can still be glitched after this line	Time: 27+2
   0x1fff00c4:	6014    	str	r4, [r2, #0]				CRP1	store CRP at 400483f0	r2 glitch window end; r4 glitch window end	Time: 29+2
   }}}
   *4003c000 |= 0x40 {{{
   0x1fff00c6:	4a0d    	ldr	r2, [pc, #52]	@ (0x1fff00fc)		r2 = 4003c000	Flash control block; undocumented register
   0x1fff00c8:	6813    	ldr	r3, [r2, #0]				r3 = *r2
   0x1fff00ca:	2440    	movs	r4, #64	@ 0x40				r4 = 40
   0x1fff00cc:	4323    	orrs	r3, r4					r3 = *r2 | 40
   0x1fff00ce:	6013    	str	r3, [r2, #0]				*r2 |= 40
   }}}
   Set sp = 10000fff if *454 == 3456abcd else sp = *438 {{{
   0x1fff00d0:	4b0b    	ldr	r3, [pc, #44]	@ (0x1fff0100)		r3 = 00000438
   0x1fff00d2:	681a    	ldr	r2, [r3, #0]				r2 = *r3
   0x1fff00d4:	4c0b    	ldr	r4, [pc, #44]	@ (0x1fff0104)		r4 = 00000454
   0x1fff00d6:	6824    	ldr	r4, [r4, #0]				r4 = *r4
   0x1fff00d8:	4d0b    	ldr	r5, [pc, #44]	@ (0x1fff0108)		r5 = 1fff013c
   0x1fff00da:	682d    	ldr	r5, [r5, #0]				r5 = 3456abcd
   0x1fff00dc:	42ac    	cmp	r4, r5					Check if *454 == 3456abcd
   0x1fff00de:	d001    	beq.n	0x1fff00e4				if not, skip
   0x1fff00e0:	4a0a    	ldr	r2, [pc, #40]	@ (0x1fff010c)		r2 = 1fff0138
   0x1fff00e2:	6812    	ldr	r2, [r2, #0]				r2 = 10000fff
   0x1fff00e4:	3a1f    	subs	r2, #31					sp = r2 - 31	(r2 is *438 if *454 != 3456abcd, otherwise 10000fff)
   0x1fff00e6:	4695    	mov	sp, r2
   }}}
   0x1fff00e8:	4a09    	ldr	r2, [pc, #36]	@ (0x1fff0110)		r2 = 1fff0471
   0x1fff00ea:	4710    	bx	r2					branch to 1fff0470 (Thumb code): main().
}}}

Not analyzed so far {{{
   0x1fff00ec:	6801    	ldr	r1, [r0, #0]
   0x1fff00ee:	468d    	mov	sp, r1
   0x1fff00f0:	6841    	ldr	r1, [r0, #4]
   0x1fff00f2:	4708    	bx	r1
   0x1fff00f4:	6801    	ldr	r1, [r0, #0]
   0x1fff00f6:	468d    	mov	sp, r1
   0x1fff00f8:	6841    	ldr	r1, [r0, #4]
   0x1fff00fa:	4708    	bx	r1
   0x1fff00fc:	c000    	stmia	r0!, {}
   0x1fff00fe:	4003    	ands	r3, r0
   0x1fff0100:	0438    	lsls	r0, r7, #16
   0x1fff0102:	0000    	movs	r0, r0
   0x1fff0104:	0454    	lsls	r4, r2, #17
   0x1fff0106:	0000    	movs	r0, r0
   0x1fff0108:	013c    	lsls	r4, r7, #4
   0x1fff010a:	1fff    	subs	r7, r7, #7
   0x1fff010c:	0138    	lsls	r0, r7, #4
   0x1fff010e:	1fff    	subs	r7, r7, #7
   0x1fff0110:	0471    	lsls	r1, r6, #17
   0x1fff0112:	1fff    	subs	r7, r7, #7
   0x1fff0114:	83f0    	strh	r0, [r6, #30]
   0x1fff0116:	4004    	ands	r4, r0
   0x1fff0118:	0128    	lsls	r0, r5, #4
   0x1fff011a:	1fff    	subs	r7, r7, #7
   0x1fff011c:	012c    	lsls	r4, r5, #4
   0x1fff011e:	1fff    	subs	r7, r7, #7
   0x1fff0120:	0130    	lsls	r0, r6, #4
   0x1fff0122:	1fff    	subs	r7, r7, #7
   0x1fff0124:	0134    	lsls	r4, r6, #4
   0x1fff0126:	1fff    	subs	r7, r7, #7
   0x1fff0128:	02fc    	lsls	r4, r7, #11
   0x1fff012a:	0000    	movs	r0, r0
   0x1fff012c:	4321    	orrs	r1, r4
   0x1fff012e:	8765    	strh	r5, [r4, #58]	@ 0x3a
   0x1fff0130:	8765    	strh	r5, [r4, #58]	@ 0x3a
   0x1fff0132:	4321    	orrs	r1, r4
   0x1fff0134:	5678    	ldrsb	r0, [r7, r1]
   0x1fff0136:	1234    	asrs	r4, r6, #8
   0x1fff0138:	0fff    	lsrs	r7, r7, #31
   0x1fff013a:	1000    	asrs	r0, r0, #32
   0x1fff013c:	abcd    	add	r3, sp, #820	@ 0x334
   0x1fff013e:	3456    	adds	r4, #86	@ 0x56
   0x1fff0140:	b51c    	push	{r2, r3, r4, lr}
   0x1fff0142:	4eff    	ldr	r6, [pc, #1020]	@ (0x1fff0540)
   0x1fff0144:	4fff    	ldr	r7, [pc, #1020]	@ (0x1fff0544)
   0x1fff0146:	2401    	movs	r4, #1
   0x1fff0148:	4dff    	ldr	r5, [pc, #1020]	@ (0x1fff0548)
   0x1fff014a:	48ff    	ldr	r0, [pc, #1020]	@ (0x1fff0548)
   0x1fff014c:	aa01    	add	r2, sp, #4
   0x1fff014e:	2146    	movs	r1, #70	@ 0x46
   0x1fff0150:	3898    	subs	r0, #152	@ 0x98
   0x1fff0152:	f013 fbb5	bl	0x200038c0
   0x1fff0156:	2800    	cmp	r0, #0
   0x1fff0158:	d1f7    	bne.n	0x1fff014a
   0x1fff015a:	217a    	movs	r1, #122	@ 0x7a
   0x1fff015c:	0082    	lsls	r2, r0, #2
   0x1fff015e:	58aa    	ldr	r2, [r5, r2]
   0x1fff0160:	1c40    	adds	r0, r0, #1
   0x1fff0162:	7011    	strb	r1, [r2, #0]
   0x1fff0164:	2805    	cmp	r0, #5
   0x1fff0166:	dbf9    	blt.n	0x1fff015c
   0x1fff0168:	200f    	movs	r0, #15
   0x1fff016a:	4af7    	ldr	r2, [pc, #988]	@ (0x1fff0548)
   0x1fff016c:	9000    	str	r0, [sp, #0]
   0x1fff016e:	4610    	mov	r0, r2
   0x1fff0170:	2305    	movs	r3, #5
   0x1fff0172:	3898    	subs	r0, #152	@ 0x98
   0x1fff0174:	9901    	ldr	r1, [sp, #4]
   0x1fff0176:	f001 ffbd	bl	0x1fff20f4
   0x1fff017a:	2800    	cmp	r0, #0
   0x1fff017c:	d0e5    	beq.n	0x1fff014a
   0x1fff017e:	6829    	ldr	r1, [r5, #0]
   0x1fff0180:	7809    	ldrb	r1, [r1, #0]
   0x1fff0182:	2952    	cmp	r1, #82	@ 0x52
   0x1fff0184:	d024    	beq.n	0x1fff01d0
   0x1fff0186:	2954    	cmp	r1, #84	@ 0x54
   0x1fff0188:	d022    	beq.n	0x1fff01d0
   0x1fff018a:	2947    	cmp	r1, #71	@ 0x47
   0x1fff018c:	d020    	beq.n	0x1fff01d0
   0x1fff018e:	294d    	cmp	r1, #77	@ 0x4d
   0x1fff0190:	d01e    	beq.n	0x1fff01d0
   0x1fff0192:	2200    	movs	r2, #0
   0x1fff0194:	2957    	cmp	r1, #87	@ 0x57
   0x1fff0196:	d01d    	beq.n	0x1fff01d4
   0x1fff0198:	2943    	cmp	r1, #67	@ 0x43
   0x1fff019a:	d01b    	beq.n	0x1fff01d4
   0x1fff019c:	2400    	movs	r4, #0
   0x1fff019e:	49eb    	ldr	r1, [pc, #940]	@ (0x1fff054c)
   0x1fff01a0:	6833    	ldr	r3, [r6, #0]
   0x1fff01a2:	6889    	ldr	r1, [r1, #8]
   0x1fff01a4:	4299    	cmp	r1, r3
   0x1fff01a6:	d006    	beq.n	0x1fff01b6
   0x1fff01a8:	683b    	ldr	r3, [r7, #0]
   0x1fff01aa:	4299    	cmp	r1, r3
   0x1fff01ac:	d003    	beq.n	0x1fff01b6
   0x1fff01ae:	4be8    	ldr	r3, [pc, #928]	@ (0x1fff0550)
   0x1fff01b0:	681b    	ldr	r3, [r3, #0]
   0x1fff01b2:	4299    	cmp	r1, r3
   0x1fff01b4:	d101    	bne.n	0x1fff01ba
   0x1fff01b6:	2a01    	cmp	r2, #1
   0x1fff01b8:	d00e    	beq.n	0x1fff01d8
   0x1fff01ba:	6832    	ldr	r2, [r6, #0]
   0x1fff01bc:	4291    	cmp	r1, r2
   0x1fff01be:	d002    	beq.n	0x1fff01c6
   0x1fff01c0:	683a    	ldr	r2, [r7, #0]
   0x1fff01c2:	4291    	cmp	r1, r2
   0x1fff01c4:	d101    	bne.n	0x1fff01ca
   0x1fff01c6:	2c01    	cmp	r4, #1
   0x1fff01c8:	d006    	beq.n	0x1fff01d8
   0x1fff01ca:	f013 fa61	bl	0x20003690
   0x1fff01ce:	e7bc    	b.n	0x1fff014a
   0x1fff01d0:	2201    	movs	r2, #1
   0x1fff01d2:	e7e4    	b.n	0x1fff019e
   0x1fff01d4:	2401    	movs	r4, #1
   0x1fff01d6:	e7e2    	b.n	0x1fff019e
   0x1fff01d8:	220f    	movs	r2, #15
   0x1fff01da:	2013    	movs	r0, #19
   0x1fff01dc:	6869    	ldr	r1, [r5, #4]
   0x1fff01de:	f001 ffcf	bl	0x1fff2180
   0x1fff01e2:	f013 fb39	bl	0x20003858
   0x1fff01e6:	e7b0    	b.n	0x1fff014a
   0x1fff01e8:	b5f8    	push	{r3, r4, r5, r6, r7, lr}
   0x1fff01ea:	4eda    	ldr	r6, [pc, #872]	@ (0x1fff0554)
   0x1fff01ec:	4fda    	ldr	r7, [pc, #872]	@ (0x1fff0558)
   0x1fff01ee:	4cdb    	ldr	r4, [pc, #876]	@ (0x1fff055c)
   0x1fff01f0:	2501    	movs	r5, #1
   0x1fff01f2:	2002    	movs	r0, #2
   0x1fff01f4:	6078    	str	r0, [r7, #4]
   0x1fff01f6:	6830    	ldr	r0, [r6, #0]
   0x1fff01f8:	0340    	lsls	r0, r0, #13
   0x1fff01fa:	d4fc    	bmi.n	0x1fff01f6
   0x1fff01fc:	6830    	ldr	r0, [r6, #0]
   0x1fff01fe:	0340    	lsls	r0, r0, #13
   0x1fff0200:	d5fc    	bpl.n	0x1fff01fc
   0x1fff0202:	607d    	str	r5, [r7, #4]
   0x1fff0204:	6830    	ldr	r0, [r6, #0]
   0x1fff0206:	0340    	lsls	r0, r0, #13
   0x1fff0208:	d4fc    	bmi.n	0x1fff0204
   0x1fff020a:	6830    	ldr	r0, [r6, #0]
   0x1fff020c:	0340    	lsls	r0, r0, #13
   0x1fff020e:	d5fc    	bpl.n	0x1fff020a
   0x1fff0210:	2000    	movs	r0, #0
   0x1fff0212:	6078    	str	r0, [r7, #4]
   0x1fff0214:	68b8    	ldr	r0, [r7, #8]
   0x1fff0216:	21d0    	movs	r1, #208	@ 0xd0
   0x1fff0218:	f000 faaa	bl	0x1fff0770
   0x1fff021c:	2200    	movs	r2, #0
   0x1fff021e:	2103    	movs	r1, #3
   0x1fff0220:	f013 fae0	bl	0x200037e4
   0x1fff0224:	68a0    	ldr	r0, [r4, #8]
   0x1fff0226:	08c0    	lsrs	r0, r0, #3
   0x1fff0228:	00c0    	lsls	r0, r0, #3
   0x1fff022a:	60a0    	str	r0, [r4, #8]
   0x1fff022c:	68a0    	ldr	r0, [r4, #8]
   0x1fff022e:	4328    	orrs	r0, r5
   0x1fff0230:	60a0    	str	r0, [r4, #8]
   0x1fff0232:	68e0    	ldr	r0, [r4, #12]
   0x1fff0234:	08c0    	lsrs	r0, r0, #3
   0x1fff0236:	00c0    	lsls	r0, r0, #3
   0x1fff0238:	60e0    	str	r0, [r4, #12]
   0x1fff023a:	68e0    	ldr	r0, [r4, #12]
   0x1fff023c:	4328    	orrs	r0, r5
   0x1fff023e:	60e0    	str	r0, [r4, #12]
   0x1fff0240:	48c7    	ldr	r0, [pc, #796]	@ (0x1fff0560)
   0x1fff0242:	f013 fb09	bl	0x20003858
   0x1fff0246:	f013 fb2a	bl	0x2000389e
   0x1fff024a:	48bf    	ldr	r0, [pc, #764]	@ (0x1fff0548)
   0x1fff024c:	2200    	movs	r2, #0
   0x1fff024e:	2146    	movs	r1, #70	@ 0x46
   0x1fff0250:	3898    	subs	r0, #152	@ 0x98
   0x1fff0252:	f013 fb35	bl	0x200038c0
   0x1fff0256:	48bc    	ldr	r0, [pc, #752]	@ (0x1fff0548)
   0x1fff0258:	49c1    	ldr	r1, [pc, #772]	@ (0x1fff0560)
   0x1fff025a:	3898    	subs	r0, #152	@ 0x98
   0x1fff025c:	f001 ff3a	bl	0x1fff20d4
   0x1fff0260:	2800    	cmp	r0, #0
   0x1fff0262:	d008    	beq.n	0x1fff0276
   0x1fff0264:	68a0    	ldr	r0, [r4, #8]
   0x1fff0266:	08c0    	lsrs	r0, r0, #3
   0x1fff0268:	00c0    	lsls	r0, r0, #3
   0x1fff026a:	60a0    	str	r0, [r4, #8]
   0x1fff026c:	68e0    	ldr	r0, [r4, #12]
   0x1fff026e:	08c0    	lsrs	r0, r0, #3
   0x1fff0270:	00c0    	lsls	r0, r0, #3
   0x1fff0272:	60e0    	str	r0, [r4, #12]
   0x1fff0274:	e7bd    	b.n	0x1fff01f2
   0x1fff0276:	bdf8    	pop	{r3, r4, r5, r6, r7, pc}
   0x1fff0278:	48ba    	ldr	r0, [pc, #744]	@ (0x1fff0564)
   0x1fff027a:	6801    	ldr	r1, [r0, #0]
   0x1fff027c:	2201    	movs	r2, #1
   0x1fff027e:	0312    	lsls	r2, r2, #12
   0x1fff0280:	4311    	orrs	r1, r2
   0x1fff0282:	6001    	str	r1, [r0, #0]
   0x1fff0284:	2101    	movs	r1, #1
   0x1fff0286:	6181    	str	r1, [r0, #24]
   0x1fff0288:	49b7    	ldr	r1, [pc, #732]	@ (0x1fff0568)
   0x1fff028a:	2085    	movs	r0, #133	@ 0x85
   0x1fff028c:	6288    	str	r0, [r1, #40]	@ 0x28
   0x1fff028e:	48b7    	ldr	r0, [pc, #732]	@ (0x1fff056c)
   0x1fff0290:	6801    	ldr	r1, [r0, #0]
   0x1fff0292:	0192    	lsls	r2, r2, #6
   0x1fff0294:	4391    	bics	r1, r2
   0x1fff0296:	6001    	str	r1, [r0, #0]
   0x1fff0298:	48b0    	ldr	r0, [pc, #704]	@ (0x1fff055c)
   0x1fff029a:	6881    	ldr	r1, [r0, #8]
   0x1fff029c:	08c9    	lsrs	r1, r1, #3
   0x1fff029e:	00c9    	lsls	r1, r1, #3
   0x1fff02a0:	6081    	str	r1, [r0, #8]
   0x1fff02a2:	6881    	ldr	r1, [r0, #8]
   0x1fff02a4:	6081    	str	r1, [r0, #8]
   0x1fff02a6:	48b2    	ldr	r0, [pc, #712]	@ (0x1fff0570)
   0x1fff02a8:	6801    	ldr	r1, [r0, #0]
   0x1fff02aa:	4391    	bics	r1, r2
   0x1fff02ac:	6001    	str	r1, [r0, #0]
   0x1fff02ae:	4770    	bx	lr
   0x1fff02b0:	f7ff ffe2	bl	0x1fff0278
   0x1fff02b4:	2001    	movs	r0, #1
   0x1fff02b6:	f013 fb2b	bl	0x20003910
   0x1fff02ba:	f7ff ff95	bl	0x1fff01e8
   0x1fff02be:	48ad    	ldr	r0, [pc, #692]	@ (0x1fff0574)
   0x1fff02c0:	f013 faca	bl	0x20003858
   0x1fff02c4:	48a0    	ldr	r0, [pc, #640]	@ (0x1fff0548)
   0x1fff02c6:	2200    	movs	r2, #0
   0x1fff02c8:	2146    	movs	r1, #70	@ 0x46
   0x1fff02ca:	3898    	subs	r0, #152	@ 0x98
   0x1fff02cc:	f013 faf8	bl	0x200038c0
   0x1fff02d0:	4c9e    	ldr	r4, [pc, #632]	@ (0x1fff054c)
   0x1fff02d2:	48a9    	ldr	r0, [pc, #676]	@ (0x1fff0578)
   0x1fff02d4:	6020    	str	r0, [r4, #0]
   0x1fff02d6:	48a7    	ldr	r0, [pc, #668]	@ (0x1fff0574)
   0x1fff02d8:	f013 fabe	bl	0x20003858
   0x1fff02dc:	2001    	movs	r0, #1
   0x1fff02de:	499a    	ldr	r1, [pc, #616]	@ (0x1fff0548)
   0x1fff02e0:	6060    	str	r0, [r4, #4]
   0x1fff02e2:	4899    	ldr	r0, [pc, #612]	@ (0x1fff0548)
   0x1fff02e4:	3950    	subs	r1, #80	@ 0x50
   0x1fff02e6:	6001    	str	r1, [r0, #0]
   0x1fff02e8:	3110    	adds	r1, #16
   0x1fff02ea:	6041    	str	r1, [r0, #4]
   0x1fff02ec:	3110    	adds	r1, #16
   0x1fff02ee:	6081    	str	r1, [r0, #8]
   0x1fff02f0:	3110    	adds	r1, #16
   0x1fff02f2:	60c1    	str	r1, [r0, #12]
   0x1fff02f4:	3110    	adds	r1, #16
   0x1fff02f6:	6101    	str	r1, [r0, #16]
   0x1fff02f8:	f7ff ff22	bl	0x1fff0140
   0x1fff02fc:	4a96    	ldr	r2, [pc, #600]	@ (0x1fff0558)
   0x1fff02fe:	2302    	movs	r3, #2
   0x1fff0300:	6053    	str	r3, [r2, #4]
   0x1fff0302:	2301    	movs	r3, #1
   0x1fff0304:	6053    	str	r3, [r2, #4]
   0x1fff0306:	4341    	muls	r1, r0
   0x1fff0308:	6890    	ldr	r0, [r2, #8]
   0x1fff030a:	4288    	cmp	r0, r1
   0x1fff030c:	d3fc    	bcc.n	0x1fff0308
   0x1fff030e:	2000    	movs	r0, #0
   0x1fff0310:	6050    	str	r0, [r2, #4]
   0x1fff0312:	4770    	bx	lr
   0x1fff0314:	b570    	push	{r4, r5, r6, lr}
   0x1fff0316:	4c99    	ldr	r4, [pc, #612]	@ (0x1fff057c)
   0x1fff0318:	6ba0    	ldr	r0, [r4, #56]	@ 0x38
   0x1fff031a:	1521    	asrs	r1, r4, #20
   0x1fff031c:	4388    	bics	r0, r1
   0x1fff031e:	63a0    	str	r0, [r4, #56]	@ 0x38
   0x1fff0320:	6ba0    	ldr	r0, [r4, #56]	@ 0x38
   0x1fff0322:	2120    	movs	r1, #32
   0x1fff0324:	4388    	bics	r0, r1
   0x1fff0326:	63a0    	str	r0, [r4, #56]	@ 0x38
   0x1fff0328:	20ff    	movs	r0, #255	@ 0xff
   0x1fff032a:	210c    	movs	r1, #12
   0x1fff032c:	30f5    	adds	r0, #245	@ 0xf5
   0x1fff032e:	f7ff ffe5	bl	0x1fff02fc
   0x1fff0332:	4d8c    	ldr	r5, [pc, #560]	@ (0x1fff0564)
   0x1fff0334:	2201    	movs	r2, #1
   0x1fff0336:	3d40    	subs	r5, #64	@ 0x40
   0x1fff0338:	602a    	str	r2, [r5, #0]
   0x1fff033a:	2300    	movs	r3, #0
   0x1fff033c:	606b    	str	r3, [r5, #4]
   0x1fff033e:	606a    	str	r2, [r5, #4]
   0x1fff0340:	4888    	ldr	r0, [pc, #544]	@ (0x1fff0564)
   0x1fff0342:	2123    	movs	r1, #35	@ 0x23
   0x1fff0344:	3880    	subs	r0, #128	@ 0x80
   0x1fff0346:	6081    	str	r1, [r0, #8]
   0x1fff0348:	6ba1    	ldr	r1, [r4, #56]	@ 0x38
   0x1fff034a:	2680    	movs	r6, #128	@ 0x80
   0x1fff034c:	43b1    	bics	r1, r6
   0x1fff034e:	63a1    	str	r1, [r4, #56]	@ 0x38
=> 0x1fff0350:	68c1    	ldr	r1, [r0, #12]
   0x1fff0352:	07c9    	lsls	r1, r1, #31
   0x1fff0354:	d0fc    	beq.n	0x1fff0350
   0x1fff0356:	2003    	movs	r0, #3
   0x1fff0358:	6328    	str	r0, [r5, #48]	@ 0x30
   0x1fff035a:	636b    	str	r3, [r5, #52]	@ 0x34
   0x1fff035c:	636a    	str	r2, [r5, #52]	@ 0x34
   0x1fff035e:	6ba0    	ldr	r0, [r4, #56]	@ 0x38
   0x1fff0360:	21ff    	movs	r1, #255	@ 0xff
   0x1fff0362:	3101    	adds	r1, #1
   0x1fff0364:	4388    	bics	r0, r1
   0x1fff0366:	63a0    	str	r0, [r4, #56]	@ 0x38
   0x1fff0368:	487e    	ldr	r0, [pc, #504]	@ (0x1fff0564)
   0x1fff036a:	3040    	adds	r0, #64	@ 0x40
   0x1fff036c:	6002    	str	r2, [r0, #0]
   0x1fff036e:	6043    	str	r3, [r0, #4]
   0x1fff0370:	6042    	str	r2, [r0, #4]
   0x1fff0372:	6082    	str	r2, [r0, #8]
   0x1fff0374:	4879    	ldr	r0, [pc, #484]	@ (0x1fff055c)
   0x1fff0376:	3840    	subs	r0, #64	@ 0x40
   0x1fff0378:	68c1    	ldr	r1, [r0, #12]
   0x1fff037a:	0949    	lsrs	r1, r1, #5
   0x1fff037c:	0149    	lsls	r1, r1, #5
   0x1fff037e:	60c1    	str	r1, [r0, #12]
   0x1fff0380:	68c1    	ldr	r1, [r0, #12]
   0x1fff0382:	4311    	orrs	r1, r2
   0x1fff0384:	60c1    	str	r1, [r0, #12]
   0x1fff0386:	6981    	ldr	r1, [r0, #24]
   0x1fff0388:	08c9    	lsrs	r1, r1, #3
   0x1fff038a:	00c9    	lsls	r1, r1, #3
   0x1fff038c:	6181    	str	r1, [r0, #24]
   0x1fff038e:	6981    	ldr	r1, [r0, #24]
   0x1fff0390:	4311    	orrs	r1, r2
   0x1fff0392:	6181    	str	r1, [r0, #24]
   0x1fff0394:	2000    	movs	r0, #0
   0x1fff0396:	21ff    	movs	r1, #255	@ 0xff
   0x1fff0398:	312d    	adds	r1, #45	@ 0x2d
   0x1fff039a:	1c40    	adds	r0, r0, #1
   0x1fff039c:	4288    	cmp	r0, r1
   0x1fff039e:	d3fc    	bcc.n	0x1fff039a
   0x1fff03a0:	bd70    	pop	{r4, r5, r6, pc}
   0x1fff03a2:	4870    	ldr	r0, [pc, #448]	@ (0x1fff0564)
   0x1fff03a4:	3840    	subs	r0, #64	@ 0x40
   0x1fff03a6:	6b03    	ldr	r3, [r0, #48]	@ 0x30
   0x1fff03a8:	2100    	movs	r1, #0
   0x1fff03aa:	2201    	movs	r2, #1
   0x1fff03ac:	2b00    	cmp	r3, #0
   0x1fff03ae:	d002    	beq.n	0x1fff03b6
   0x1fff03b0:	6301    	str	r1, [r0, #48]	@ 0x30
   0x1fff03b2:	6341    	str	r1, [r0, #52]	@ 0x34
   0x1fff03b4:	6342    	str	r2, [r0, #52]	@ 0x34
   0x1fff03b6:	6382    	str	r2, [r0, #56]	@ 0x38
   0x1fff03b8:	486a    	ldr	r0, [pc, #424]	@ (0x1fff0564)
   0x1fff03ba:	6802    	ldr	r2, [r0, #0]
   0x1fff03bc:	4b70    	ldr	r3, [pc, #448]	@ (0x1fff0580)
   0x1fff03be:	431a    	orrs	r2, r3
   0x1fff03c0:	6002    	str	r2, [r0, #0]
   0x1fff03c2:	4865    	ldr	r0, [pc, #404]	@ (0x1fff0558)
   0x1fff03c4:	60c1    	str	r1, [r0, #12]
   0x1fff03c6:	6101    	str	r1, [r0, #16]
   0x1fff03c8:	4863    	ldr	r0, [pc, #396]	@ (0x1fff0558)
   0x1fff03ca:	3040    	adds	r0, #64	@ 0x40
   0x1fff03cc:	6b01    	ldr	r1, [r0, #48]	@ 0x30
   0x1fff03ce:	220c    	movs	r2, #12
   0x1fff03d0:	4011    	ands	r1, r2
   0x1fff03d2:	6301    	str	r1, [r0, #48]	@ 0x30
   0x1fff03d4:	4770    	bx	lr

   0x1fff03d6:	b510    	push	{r4, lr}
   0x1fff03d8:	486a    	ldr	r0, [pc, #424]	@ (0x1fff0584)
   0x1fff03da:	6802    	ldr	r2, [r0, #0]
   0x1fff03dc:	2140    	movs	r1, #64	@ 0x40
   0x1fff03de:	430a    	orrs	r2, r1
   0x1fff03e0:	6002    	str	r2, [r0, #0]
   0x1fff03e2:	4a69    	ldr	r2, [pc, #420]	@ (0x1fff0588)
   0x1fff03e4:	6814    	ldr	r4, [r2, #0]
   0x1fff03e6:	6802    	ldr	r2, [r0, #0]
   0x1fff03e8:	438a    	bics	r2, r1
   0x1fff03ea:	6002    	str	r2, [r0, #0]
   0x1fff03ec:	4867    	ldr	r0, [pc, #412]	@ (0x1fff058c)
   0x1fff03ee:	4957    	ldr	r1, [pc, #348]	@ (0x1fff054c)
   0x1fff03f0:	6800    	ldr	r0, [r0, #0]
   0x1fff03f2:	6800    	ldr	r0, [r0, #0]
   0x1fff03f4:	6088    	str	r0, [r1, #8]
   0x1fff03f6:	f7ff ffd4	bl	0x1fff03a2
   0x1fff03fa:	07e0    	lsls	r0, r4, #31
   0x1fff03fc:	d108    	bne.n	0x1fff0410
   0x1fff03fe:	4855    	ldr	r0, [pc, #340]	@ (0x1fff0554)
   0x1fff0400:	6800    	ldr	r0, [r0, #0]
   0x1fff0402:	0700    	lsls	r0, r0, #28
   0x1fff0404:	d504    	bpl.n	0x1fff0410
   0x1fff0406:	f7ff ff85	bl	0x1fff0314
   0x1fff040a:	f013 fb98	bl	0x20003b3e
   0x1fff040e:	bd10    	pop	{r4, pc}

   0x1fff0410:	f7ff ff4e	bl	0x1fff02b0

   0x1fff0414:	b570    	push	{r4, r5, r6, lr}
   0x1fff0416:	4d53    	ldr	r5, [pc, #332]	@ (0x1fff0564)
   0x1fff0418:	2400    	movs	r4, #0
   0x1fff041a:	2002    	movs	r0, #2
   0x1fff041c:	3d80    	subs	r5, #128	@ 0x80
   0x1fff041e:	6028    	str	r0, [r5, #0]
   0x1fff0420:	4958    	ldr	r1, [pc, #352]	@ (0x1fff0584)
   0x1fff0422:	4620    	mov	r0, r4
   0x1fff0424:	680b    	ldr	r3, [r1, #0]
   0x1fff0426:	2240    	movs	r2, #64	@ 0x40
   0x1fff0428:	4313    	orrs	r3, r2
   0x1fff042a:	600b    	str	r3, [r1, #0]
   0x1fff042c:	4b58    	ldr	r3, [pc, #352]	@ (0x1fff0590)
   0x1fff042e:	680e    	ldr	r6, [r1, #0]
   0x1fff0430:	681b    	ldr	r3, [r3, #0]
   0x1fff0432:	4396    	bics	r6, r2
   0x1fff0434:	600e    	str	r6, [r1, #0]
   0x1fff0436:	4622    	mov	r2, r4
   0x1fff0438:	4621    	mov	r1, r4
   0x1fff043a:	008e    	lsls	r6, r1, #2
   0x1fff043c:	5986    	ldr	r6, [r0, r6]
   0x1fff043e:	1c49    	adds	r1, r1, #1
   0x1fff0440:	18b2    	adds	r2, r6, r2
   0x1fff0442:	2908    	cmp	r1, #8
   0x1fff0444:	dbf9    	blt.n	0x1fff043a
   0x1fff0446:	2a00    	cmp	r2, #0
   0x1fff0448:	d002    	beq.n	0x1fff0450
   0x1fff044a:	2000    	movs	r0, #0
   0x1fff044c:	6028    	str	r0, [r5, #0]
   0x1fff044e:	bd70    	pop	{r4, r5, r6, pc}
   0x1fff0450:	4850    	ldr	r0, [pc, #320]	@ (0x1fff0594)
   0x1fff0452:	6800    	ldr	r0, [r0, #0]
   0x1fff0454:	68c0    	ldr	r0, [r0, #12]
   0x1fff0456:	6881    	ldr	r1, [r0, #8]
   0x1fff0458:	4618    	mov	r0, r3
   0x1fff045a:	4788    	blx	r1
   0x1fff045c:	4620    	mov	r0, r4
   0x1fff045e:	f7ff fe45	bl	0x1fff00ec
   0x1fff0462:	bd70    	pop	{r4, r5, r6, pc}

   0x1fff0464:	b510    	push	{r4, lr}
   0x1fff0466:	f7ff ffd5	bl	0x1fff0414
   0x1fff046a:	f7ff ffb4	bl	0x1fff03d6
   0x1fff046e:	bd10    	pop	{r4, pc}
}}}

main() (?) {{{
   0x1fff0470:	b5f0    	push	{r4, r5, r6, r7, lr}
	*4003c000 &= ~0x40 : flash controller memory; undocumented register; also allocate 5 words on stack {{{
   0x1fff0472:	4c44    	ldr	r4, [pc, #272]	@ (0x1fff0584)	r4 = 4003c000
   0x1fff0474:	b085    	sub	sp, #20		// Allocate 5 words on the stack
   0x1fff0476:	6820    	ldr	r0, [r4, #0]
   0x1fff0478:	2540    	movs	r5, #64	@ 0x40
   0x1fff047a:	43a8    	bics	r0, r5
   0x1fff047c:	6020    	str	r0, [r4, #0]	}}}
   *10000058 = *2fc {{{
   0x1fff047e:	4843    	ldr	r0, [pc, #268]	@ (0x1fff058c)	r0 = 1fff0128
   0x1fff0480:	6800    	ldr	r0, [r0, #0]			r0 = 000002fc
   0x1fff0482:	6801    	ldr	r1, [r0, #0]			r1 = *r0
   0x1fff0484:	4831    	ldr	r0, [pc, #196]	@ (0x1fff054c)	r0 = 10000050
   0x1fff0486:	6081    	str	r1, [r0, #8]			*10000058 = r1
   }}}
			*4003c000 |= 0x40 {{{
   0x1fff0488:	6820    	ldr	r0, [r4, #0]
   0x1fff048a:	4328    	orrs	r0, r5				
   0x1fff048c:	6020    	str	r0, [r4, #0]			}}}
			if *454 != 3456abcd: hang? {{{
   0x1fff048e:	4842    	ldr	r0, [pc, #264]	@ (0x1fff0598)	r0 = 00000454
   0x1fff0490:	4942    	ldr	r1, [pc, #264]	@ (0x1fff059c)	r1 = 3456abcd
   0x1fff0492:	6800    	ldr	r0, [r0, #0]			r0 = *454
   0x1fff0494:	4288    	cmp	r0, r1
   0x1fff0496:	d003    	beq.n	0x1fff04a0
   0x1fff0498:	6820    	ldr	r0, [r4, #0]			*4003c000 &= ~0x40 {{{
   0x1fff049a:	43a8    	bics	r0, r5				
   0x1fff049c:	6020    	str	r0, [r4, #0]			}}}
   0x1fff049e:	e7fe    	b.n	0x1fff049e			Loop forever. (Wait for reset? Why would it reset?)
   }}}
   0x1fff04a0:	483f    	ldr	r0, [pc, #252]	@ (0x1fff05a0)	r0 = 00000464
   0x1fff04a2:	4e30    	ldr	r6, [pc, #192]	@ (0x1fff0564)	r6 = 40048080
   0x1fff04a4:	6800    	ldr	r0, [r0, #0]			r0 = *464
   0x1fff04a6:	493f    	ldr	r1, [pc, #252]	@ (0x1fff05a4)	r1 = 534b4950
   0x1fff04a8:	4f3f    	ldr	r7, [pc, #252]	@ (0x1fff05a8)	r7 = 400483c0
   0x1fff04aa:	36c0    	adds	r6, #192	@ 0xc0		r6 = 40048140	; undocumented register in system control block
   0x1fff04ac:	4288    	cmp	r0, r1
   0x1fff04ae:	d107    	bne.n	0x1fff04c0
If *464 == 534b4950: {{{
   0x1fff04b0:	483e    	ldr	r0, [pc, #248]	@ (0x1fff05ac)	r0 = 12345678
   0x1fff04b2:	6138    	str	r0, [r7, #16]			*400483d0 = 12345678
   0x1fff04b4:	483e    	ldr	r0, [pc, #248]	@ (0x1fff05b0)	r0 = 00000460
   0x1fff04b6:	6800    	ldr	r0, [r0, #0]			r0 = *460
   0x1fff04b8:	6230    	str	r0, [r6, #32]			*40048160 = *460
   0x1fff04ba:	2000    	movs	r0, #0
   0x1fff04bc:	6138    	str	r0, [r7, #16]			*400483d0 = 0
   0x1fff04be:	e00f    	b.n	0x1fff04e0
}}}
else {{{
   0x1fff04c0:	210c    	movs	r1, #12
   0x1fff04c2:	483c    	ldr	r0, [pc, #240]	@ (0x1fff05b4)
   0x1fff04c4:	9100    	str	r1, [sp, #0]
   0x1fff04c6:	6800    	ldr	r0, [r0, #0]
   0x1fff04c8:	9001    	str	r0, [sp, #4]
   0x1fff04ca:	4832    	ldr	r0, [pc, #200]	@ (0x1fff0594)
   0x1fff04cc:	9102    	str	r1, [sp, #8]
   0x1fff04ce:	6800    	ldr	r0, [r0, #0]
   0x1fff04d0:	a903    	add	r1, sp, #12
   0x1fff04d2:	68c0    	ldr	r0, [r0, #12]
   0x1fff04d4:	6842    	ldr	r2, [r0, #4]
   0x1fff04d6:	4668    	mov	r0, sp
   0x1fff04d8:	4790    	blx	r2
   0x1fff04da:	6820    	ldr	r0, [r4, #0]
   0x1fff04dc:	4328    	orrs	r0, r5
   0x1fff04de:	6020    	str	r0, [r4, #0]
}}}
   0x1fff04e0:	4829    	ldr	r0, [pc, #164]	@ (0x1fff0588)	r0 = 0000430
   0x1fff04e2:	6800    	ldr	r0, [r0, #0]			r0 = *430
   0x1fff04e4:	63b8    	str	r0, [r7, #56]	@ 0x38		*400483f8 = *430
   0x1fff04e6:	4834    	ldr	r0, [pc, #208]	@ (0x1fff05b8)	r0 = 00000458
   0x1fff04e8:	6800    	ldr	r0, [r0, #0]			r0 = *458
   0x1fff04ea:	63f8    	str	r0, [r7, #60]	@ 0x3c		*400483fc = *458
   0x1fff04ec:	4833    	ldr	r0, [pc, #204]	@ (0x1fff05bc)	r0 = 00000438
   0x1fff04ee:	2100    	movs	r1, #0
   0x1fff04f0:	6800    	ldr	r0, [r0, #0]			r0 = *438
   0x1fff04f2:	43c9    	mvns	r1, r1				r1 = -1
   0x1fff04f4:	383f    	subs	r0, #63	@ 0x3f			r0 -= 3f
   0x1fff04f6:	63c1    	str	r1, [r0, #60]	@ 0x3c		*(*438 - 4) = -1
   0x1fff04f8:	4a31    	ldr	r2, [pc, #196]	@ (0x1fff05c0)	r2 = 00000440
   0x1fff04fa:	491a    	ldr	r1, [pc, #104]	@ (0x1fff0564)	r1 = 40048080
   0x1fff04fc:	6810    	ldr	r0, [r2, #0]			r0 = *440
   0x1fff04fe:	6008    	str	r0, [r1, #0]			*40048080 = *440
   0x1fff0500:	4830    	ldr	r0, [pc, #192]	@ (0x1fff05c4)	r0 = 00000444
   0x1fff0502:	6800    	ldr	r0, [r0, #0]			r0 = *444
   0x1fff0504:	6170    	str	r0, [r6, #20]			*40048154 = *444
   0x1fff0506:	4830    	ldr	r0, [pc, #192]	@ (0x1fff05c8)	r0 = 00000448
   0x1fff0508:	4e16    	ldr	r6, [pc, #88]	@ (0x1fff0564)	r6 = 40048080
   0x1fff050a:	6800    	ldr	r0, [r0, #0]			r0 = *448
   0x1fff050c:	3e80    	subs	r6, #128	@ 0x80		r6 = 40048000
   0x1fff050e:	62b0    	str	r0, [r6, #40]	@ 0x28		*40048040 = *448
   0x1fff0510:	6810    	ldr	r0, [r2, #0]			r0 = *440
   0x1fff0512:	0503    	lsls	r3, r0, #20			r3 = *440 << 0x14
   0x1fff0514:	2001    	movs	r0, #1
   0x1fff0516:	2b00    	cmp	r3, #0
   0x1fff0518:	da00    	bge.n	0x1fff051c
   0x1fff051a:	6148    	str	r0, [r1, #20]
   0x1fff051c:	6813    	ldr	r3, [r2, #0]
   0x1fff051e:	04db    	lsls	r3, r3, #19
   0x1fff0520:	d500    	bpl.n	0x1fff0524
   0x1fff0522:	6188    	str	r0, [r1, #24]
   0x1fff0524:	6811    	ldr	r1, [r2, #0]
   0x1fff0526:	044b    	lsls	r3, r1, #17
   0x1fff0528:	4928    	ldr	r1, [pc, #160]	@ (0x1fff05cc)
   0x1fff052a:	d500    	bpl.n	0x1fff052e
   0x1fff052c:	6088    	str	r0, [r1, #8]
   0x1fff052e:	6812    	ldr	r2, [r2, #0]
   0x1fff0530:	0412    	lsls	r2, r2, #16
   0x1fff0532:	d500    	bpl.n	0x1fff0536
   0x1fff0534:	6188    	str	r0, [r1, #24]
   0x1fff0536:	4826    	ldr	r0, [pc, #152]	@ (0x1fff05d0)
   0x1fff0538:	6801    	ldr	r1, [r0, #0]
   0x1fff053a:	4826    	ldr	r0, [pc, #152]	@ (0x1fff05d4)
   0x1fff053c:	6800    	ldr	r0, [r0, #0]
   0x1fff053e:	e04b    	b.n	0x1fff05d8

   Data {{{
   0x1fff0540:	012c    	lsls	r4, r5, #4
   0x1fff0542:	1fff    	subs	r7, r7, #7
   0x1fff0544:	0130    	lsls	r0, r6, #4
   0x1fff0546:	1fff    	subs	r7, r7, #7
   0x1fff0548:	00f8    	lsls	r0, r7, #3
   0x1fff054a:	1000    	asrs	r0, r0, #32
   0x1fff054c:	0050    	lsls	r0, r2, #1
   0x1fff054e:	1000    	asrs	r0, r0, #32
   0x1fff0550:	0134    	lsls	r4, r6, #4
   0x1fff0552:	1fff    	subs	r7, r7, #7
   0x1fff0554:	2100    	movs	r1, #0
   0x1fff0556:	5000    	str	r0, [r0, r0]
   0x1fff0558:	8000    	strh	r0, [r0, #0]
   0x1fff055a:	4001    	ands	r1, r0
   0x1fff055c:	4040    	eors	r0, r0
   0x1fff055e:	4004    	ands	r4, r0
   0x1fff0560:	1e88    	subs	r0, r1, #2
   0x1fff0562:	1fff    	subs	r7, r7, #7
   0x1fff0564:	8080    	strh	r0, [r0, #4]
   0x1fff0566:	4004    	ands	r4, r0
   0x1fff0568:	8000    	strh	r0, [r0, #0]
   0x1fff056a:	4000    	ands	r0, r0
   0x1fff056c:	2400    	movs	r4, #0
   0x1fff056e:	5000    	str	r0, [r0, r0]
   0x1fff0570:	2000    	movs	r0, #0
   0x1fff0572:	5000    	str	r0, [r0, r0]
   0x1fff0574:	3eec    	subs	r6, #236	@ 0xec
   0x1fff0576:	2000    	movs	r0, #0
   0x1fff0578:	2ee0    	cmp	r6, #224	@ 0xe0
   0x1fff057a:	0000    	movs	r0, r0
   0x1fff057c:	8200    	strh	r0, [r0, #16]
   0x1fff057e:	4004    	ands	r4, r0
   0x1fff0580:	0440    	lsls	r0, r0, #17
   0x1fff0582:	0201    	lsls	r1, r0, #8
   0x1fff0584:	c000    	stmia	r0!, {}
   0x1fff0586:	4003    	ands	r3, r0
   0x1fff0588:	0430    	lsls	r0, r6, #16
   0x1fff058a:	0000    	movs	r0, r0
   0x1fff058c:	0128    	lsls	r0, r5, #4
   0x1fff058e:	1fff    	subs	r7, r7, #7
   0x1fff0590:	0470    	lsls	r0, r6, #17
   0x1fff0592:	0000    	movs	r0, r0
   0x1fff0594:	1ff8    	subs	r0, r7, #7
   0x1fff0596:	1fff    	subs	r7, r7, #7
   0x1fff0598:	0454    	lsls	r4, r2, #17
   0x1fff059a:	0000    	movs	r0, r0
   0x1fff059c:	abcd    	add	r3, sp, #820	@ 0x334
   0x1fff059e:	3456    	adds	r4, #86	@ 0x56
   0x1fff05a0:	0464    	lsls	r4, r4, #17
   0x1fff05a2:	0000    	movs	r0, r0
   0x1fff05a4:	4950    	ldr	r1, [pc, #320]	@ (0x1fff06e8)
   0x1fff05a6:	534b    	strh	r3, [r1, r5]
   0x1fff05a8:	83c0    	strh	r0, [r0, #30]
   0x1fff05aa:	4004    	ands	r4, r0
   0x1fff05ac:	5678    	ldrsb	r0, [r7, r1]
   0x1fff05ae:	1234    	asrs	r4, r6, #8
   0x1fff05b0:	0460    	lsls	r0, r4, #17
   0x1fff05b2:	0000    	movs	r0, r0
   0x1fff05b4:	0468    	lsls	r0, r5, #17
   0x1fff05b6:	0000    	movs	r0, r0
   0x1fff05b8:	0458    	lsls	r0, r3, #17
   0x1fff05ba:	0000    	movs	r0, r0
   0x1fff05bc:	0438    	lsls	r0, r7, #16
   0x1fff05be:	0000    	movs	r0, r0
   0x1fff05c0:	0440    	lsls	r0, r0, #17
   0x1fff05c2:	0000    	movs	r0, r0
   0x1fff05c4:	0444    	lsls	r4, r0, #17
   0x1fff05c6:	0000    	movs	r0, r0
   0x1fff05c8:	0448    	lsls	r0, r1, #17
   0x1fff05ca:	0000    	movs	r0, r0
   0x1fff05cc:	80c0    	strh	r0, [r0, #6]
   0x1fff05ce:	4004    	ands	r4, r0
   0x1fff05d0:	044c    	lsls	r4, r1, #17
   0x1fff05d2:	0000    	movs	r0, r0
   0x1fff05d4:	0450    	lsls	r0, r2, #17
   0x1fff05d6:	0000    	movs	r0, r0
   }}}

   0x1fff05d8:	6822    	ldr	r2, [r4, #0]
   0x1fff05da:	43aa    	bics	r2, r5
   0x1fff05dc:	6022    	str	r2, [r4, #0]
   0x1fff05de:	4a11    	ldr	r2, [pc, #68]	@ (0x1fff0624)
   0x1fff05e0:	4291    	cmp	r1, r2
   0x1fff05e2:	d101    	bne.n	0x1fff05e8
   0x1fff05e4:	f7ff fd86	bl	0x1fff00f4
   0x1fff05e8:	480f    	ldr	r0, [pc, #60]	@ (0x1fff0628)
   0x1fff05ea:	6020    	str	r0, [r4, #0]
   0x1fff05ec:	6820    	ldr	r0, [r4, #0]
   0x1fff05ee:	2101    	movs	r1, #1
   0x1fff05f0:	0449    	lsls	r1, r1, #17
   0x1fff05f2:	4308    	orrs	r0, r1
   0x1fff05f4:	6020    	str	r0, [r4, #0]
   0x1fff05f6:	6b30    	ldr	r0, [r6, #48]	@ 0x30
   0x1fff05f8:	0740    	lsls	r0, r0, #29
   0x1fff05fa:	d503    	bpl.n	0x1fff0604
   0x1fff05fc:	f7ff ff32	bl	0x1fff0464
   0x1fff0600:	b005    	add	sp, #20
   0x1fff0602:	bdf0    	pop	{r4, r5, r6, r7, pc}
   }}}

   0x1fff0604:	4809    	ldr	r0, [pc, #36]	@ (0x1fff062c)
   0x1fff0606:	6800    	ldr	r0, [r0, #0]
   0x1fff0608:	0780    	lsls	r0, r0, #30
   0x1fff060a:	d4f7    	bmi.n	0x1fff05fc
   0x1fff060c:	4808    	ldr	r0, [pc, #32]	@ (0x1fff0630)
   0x1fff060e:	4909    	ldr	r1, [pc, #36]	@ (0x1fff0634)
   0x1fff0610:	6880    	ldr	r0, [r0, #8]
   0x1fff0612:	6809    	ldr	r1, [r1, #0]
   0x1fff0614:	4288    	cmp	r0, r1
   0x1fff0616:	d0f1    	beq.n	0x1fff05fc
   0x1fff0618:	4907    	ldr	r1, [pc, #28]	@ (0x1fff0638)
   0x1fff061a:	4288    	cmp	r0, r1
   0x1fff061c:	d0ee    	beq.n	0x1fff05fc
   0x1fff061e:	f7ff feda	bl	0x1fff03d6
   0x1fff0622:	e7ed    	b.n	0x1fff0600
   0x1fff0624:	0620    	lsls	r0, r4, #24
   0x1fff0626:	2008    	movs	r0, #8
   0x1fff0628:	0005    	movs	r5, r0
   0x1fff062a:	0001    	movs	r1, r0
   0x1fff062c:	2100    	movs	r1, #0
   0x1fff062e:	5000    	str	r0, [r0, r0]
   0x1fff0630:	0050    	lsls	r0, r2, #1
   0x1fff0632:	1000    	asrs	r0, r0, #32
   0x1fff0634:	0130    	lsls	r0, r6, #4
   0x1fff0636:	1fff    	subs	r7, r7, #7
   0x1fff0638:	7370    	strb	r0, [r6, #13]
   0x1fff063a:	4e69    	ldr	r6, [pc, #420]	@ (0x1fff07e0)
   0x1fff063c:	1e49    	subs	r1, r1, #1
   0x1fff063e:	4008    	ands	r0, r1
   0x1fff0640:	d000    	beq.n	0x1fff0644
   0x1fff0642:	2001    	movs	r0, #1
   0x1fff0644:	4770    	bx	lr
   0x1fff0646:	b5f8    	push	{r3, r4, r5, r6, r7, lr}
   0x1fff0648:	2400    	movs	r4, #0
   0x1fff064a:	460e    	mov	r6, r1
   0x1fff064c:	4615    	mov	r5, r2
   0x1fff064e:	461f    	mov	r7, r3
   0x1fff0650:	2800    	cmp	r0, #0
   0x1fff0652:	d005    	beq.n	0x1fff0660
   0x1fff0654:	f001 fd7f	bl	0x1fff2156
   0x1fff0658:	2800    	cmp	r0, #0
   0x1fff065a:	d001    	beq.n	0x1fff0660
   0x1fff065c:	200c    	movs	r0, #12
   0x1fff065e:	bdf8    	pop	{r3, r4, r5, r6, r7, pc}
   0x1fff0660:	2d69    	cmp	r5, #105	@ 0x69
   0x1fff0662:	d011    	beq.n	0x1fff0688
   0x1fff0664:	2104    	movs	r1, #4
   0x1fff0666:	6830    	ldr	r0, [r6, #0]
   0x1fff0668:	f7ff ffe8	bl	0x1fff063c
   0x1fff066c:	2201    	movs	r2, #1
   0x1fff066e:	0312    	lsls	r2, r2, #12
   0x1fff0670:	2800    	cmp	r0, #0
   0x1fff0672:	d011    	beq.n	0x1fff0698
   0x1fff0674:	2d64    	cmp	r5, #100	@ 0x64
   0x1fff0676:	d009    	beq.n	0x1fff068c
   0x1fff0678:	240d    	movs	r4, #13
   0x1fff067a:	2d67    	cmp	r5, #103	@ 0x67
   0x1fff067c:	d008    	beq.n	0x1fff0690
   0x1fff067e:	2d68    	cmp	r5, #104	@ 0x68
   0x1fff0680:	d008    	beq.n	0x1fff0694
   0x1fff0682:	2c00    	cmp	r4, #0
   0x1fff0684:	d019    	beq.n	0x1fff06ba
   0x1fff0686:	e052    	b.n	0x1fff072e
   0x1fff0688:	2000    	movs	r0, #0
   0x1fff068a:	bdf8    	pop	{r3, r4, r5, r6, r7, pc}
   0x1fff068c:	2406    	movs	r4, #6
   0x1fff068e:	e04e    	b.n	0x1fff072e
   0x1fff0690:	2402    	movs	r4, #2
   0x1fff0692:	e04c    	b.n	0x1fff072e
   0x1fff0694:	2403    	movs	r4, #3
   0x1fff0696:	e04a    	b.n	0x1fff072e
   0x1fff0698:	2d65    	cmp	r5, #101	@ 0x65
   0x1fff069a:	d10e    	bne.n	0x1fff06ba
   0x1fff069c:	6830    	ldr	r0, [r6, #0]
   0x1fff069e:	1fc1    	subs	r1, r0, #7
   0x1fff06a0:	39f9    	subs	r1, #249	@ 0xf9
   0x1fff06a2:	d00a    	beq.n	0x1fff06ba
   0x1fff06a4:	39ff    	subs	r1, #255	@ 0xff
   0x1fff06a6:	3901    	subs	r1, #1
   0x1fff06a8:	d007    	beq.n	0x1fff06ba
   0x1fff06aa:	2101    	movs	r1, #1
   0x1fff06ac:	0289    	lsls	r1, r1, #10
   0x1fff06ae:	4288    	cmp	r0, r1
   0x1fff06b0:	d003    	beq.n	0x1fff06ba
   0x1fff06b2:	4290    	cmp	r0, r2
   0x1fff06b4:	d001    	beq.n	0x1fff06ba
   0x1fff06b6:	2006    	movs	r0, #6
   0x1fff06b8:	bdf8    	pop	{r3, r4, r5, r6, r7, pc}
   0x1fff06ba:	4b32    	ldr	r3, [pc, #200]	@ (0x1fff0784)
   0x1fff06bc:	6818    	ldr	r0, [r3, #0]
   0x1fff06be:	2140    	movs	r1, #64	@ 0x40
   0x1fff06c0:	4308    	orrs	r0, r1
   0x1fff06c2:	6018    	str	r0, [r3, #0]
   0x1fff06c4:	2001    	movs	r0, #1
   0x1fff06c6:	6831    	ldr	r1, [r6, #0]
   0x1fff06c8:	0700    	lsls	r0, r0, #28
   0x1fff06ca:	4281    	cmp	r1, r0
   0x1fff06cc:	d307    	bcc.n	0x1fff06de
   0x1fff06ce:	482e    	ldr	r0, [pc, #184]	@ (0x1fff0788)
   0x1fff06d0:	19cb    	adds	r3, r1, r7
   0x1fff06d2:	6800    	ldr	r0, [r0, #0]
   0x1fff06d4:	1c40    	adds	r0, r0, #1
   0x1fff06d6:	4283    	cmp	r3, r0
   0x1fff06d8:	d801    	bhi.n	0x1fff06de
   0x1fff06da:	2001    	movs	r0, #1
   0x1fff06dc:	e000    	b.n	0x1fff06e0
   0x1fff06de:	2000    	movs	r0, #0
   0x1fff06e0:	4b2a    	ldr	r3, [pc, #168]	@ (0x1fff078c)
   0x1fff06e2:	19c9    	adds	r1, r1, r7
   0x1fff06e4:	78db    	ldrb	r3, [r3, #3]
   0x1fff06e6:	031b    	lsls	r3, r3, #12
   0x1fff06e8:	189a    	adds	r2, r3, r2
   0x1fff06ea:	428a    	cmp	r2, r1
   0x1fff06ec:	d301    	bcc.n	0x1fff06f2
   0x1fff06ee:	2101    	movs	r1, #1
   0x1fff06f0:	e000    	b.n	0x1fff06f4
   0x1fff06f2:	2100    	movs	r1, #0
   0x1fff06f4:	4f23    	ldr	r7, [pc, #140]	@ (0x1fff0784)
   0x1fff06f6:	683a    	ldr	r2, [r7, #0]
   0x1fff06f8:	2340    	movs	r3, #64	@ 0x40
   0x1fff06fa:	439a    	bics	r2, r3
   0x1fff06fc:	603a    	str	r2, [r7, #0]
   0x1fff06fe:	2d66    	cmp	r5, #102	@ 0x66
   0x1fff0700:	d004    	beq.n	0x1fff070c
   0x1fff0702:	2d67    	cmp	r5, #103	@ 0x67
   0x1fff0704:	d006    	beq.n	0x1fff0714
   0x1fff0706:	2d68    	cmp	r5, #104	@ 0x68
   0x1fff0708:	d008    	beq.n	0x1fff071c
   0x1fff070a:	e010    	b.n	0x1fff072e
   0x1fff070c:	4308    	orrs	r0, r1
   0x1fff070e:	d10e    	bne.n	0x1fff072e
   0x1fff0710:	240e    	movs	r4, #14
   0x1fff0712:	e00c    	b.n	0x1fff072e
   0x1fff0714:	2800    	cmp	r0, #0
   0x1fff0716:	d10a    	bne.n	0x1fff072e
   0x1fff0718:	2404    	movs	r4, #4
   0x1fff071a:	e008    	b.n	0x1fff072e
   0x1fff071c:	2900    	cmp	r1, #0
   0x1fff071e:	d008    	beq.n	0x1fff0732
   0x1fff0720:	21ff    	movs	r1, #255	@ 0xff
   0x1fff0722:	3101    	adds	r1, #1
   0x1fff0724:	6830    	ldr	r0, [r6, #0]
   0x1fff0726:	f7ff ff89	bl	0x1fff063c
   0x1fff072a:	2800    	cmp	r0, #0
   0x1fff072c:	d1b2    	bne.n	0x1fff0694
   0x1fff072e:	4620    	mov	r0, r4
   0x1fff0730:	bdf8    	pop	{r3, r4, r5, r6, r7, pc}
   0x1fff0732:	2405    	movs	r4, #5
   0x1fff0734:	e7fb    	b.n	0x1fff072e
   0x1fff0736:	b570    	push	{r4, r5, r6, lr}
   0x1fff0738:	4b12    	ldr	r3, [pc, #72]	@ (0x1fff0784)
   0x1fff073a:	4604    	mov	r4, r0
   0x1fff073c:	681e    	ldr	r6, [r3, #0]
   0x1fff073e:	200e    	movs	r0, #14
   0x1fff0740:	2540    	movs	r5, #64	@ 0x40
   0x1fff0742:	432e    	orrs	r6, r5
   0x1fff0744:	601e    	str	r6, [r3, #0]
   0x1fff0746:	05ae    	lsls	r6, r5, #22
   0x1fff0748:	42b1    	cmp	r1, r6
   0x1fff074a:	d30c    	bcc.n	0x1fff0766
   0x1fff074c:	188e    	adds	r6, r1, r2
   0x1fff074e:	490e    	ldr	r1, [pc, #56]	@ (0x1fff0788)
   0x1fff0750:	6809    	ldr	r1, [r1, #0]
   0x1fff0752:	1c49    	adds	r1, r1, #1
   0x1fff0754:	428e    	cmp	r6, r1
   0x1fff0756:	d806    	bhi.n	0x1fff0766
   0x1fff0758:	490d    	ldr	r1, [pc, #52]	@ (0x1fff0790)
   0x1fff075a:	18a2    	adds	r2, r4, r2
   0x1fff075c:	8809    	ldrh	r1, [r1, #0]
   0x1fff075e:	1c49    	adds	r1, r1, #1
   0x1fff0760:	428a    	cmp	r2, r1
   0x1fff0762:	d800    	bhi.n	0x1fff0766
   0x1fff0764:	2000    	movs	r0, #0
   0x1fff0766:	6819    	ldr	r1, [r3, #0]
   0x1fff0768:	43a9    	bics	r1, r5
   0x1fff076a:	6019    	str	r1, [r3, #0]
   0x1fff076c:	bd70    	pop	{r4, r5, r6, pc}
   0x1fff076e:	4770    	bx	lr
   0x1fff0770:	b510    	push	{r4, lr}
   0x1fff0772:	460c    	mov	r4, r1
   0x1fff0774:	f003 fba8	bl	0x1fff3ec8
   0x1fff0778:	0862    	lsrs	r2, r4, #1
   0x1fff077a:	428a    	cmp	r2, r1
   0x1fff077c:	d200    	bcs.n	0x1fff0780
   0x1fff077e:	1c40    	adds	r0, r0, #1
   0x1fff0780:	bd10    	pop	{r4, pc}
   0x1fff0782:	0000    	movs	r0, r0
   0x1fff0784:	c000    	stmia	r0!, {}
   0x1fff0786:	4003    	ands	r3, r0
   0x1fff0788:	0438    	lsls	r0, r7, #16
   0x1fff078a:	0000    	movs	r0, r0
   0x1fff078c:	043c    	lsls	r4, r7, #16
   0x1fff078e:	0000    	movs	r0, r0
   0x1fff0790:	045c    	lsls	r4, r3, #17
   0x1fff0792:	0000    	movs	r0, r0
   0x1fff0794:	b5f8    	push	{r3, r4, r5, r6, r7, lr}
   0x1fff0796:	4605    	mov	r5, r0
   0x1fff0798:	4c73    	ldr	r4, [pc, #460]	@ (0x1fff0968)
   0x1fff079a:	2000    	movs	r0, #0
   0x1fff079c:	61a0    	str	r0, [r4, #24]
   0x1fff079e:	21ff    	movs	r1, #255	@ 0xff
   0x1fff07a0:	3178    	adds	r1, #120	@ 0x78
   0x1fff07a2:	4628    	mov	r0, r5
   0x1fff07a4:	f003 fb90	bl	0x1fff3ec8
   0x1fff07a8:	6160    	str	r0, [r4, #20]
   0x1fff07aa:	6960    	ldr	r0, [r4, #20]
   0x1fff07ac:	277d    	movs	r7, #125	@ 0x7d
   0x1fff07ae:	00ff    	lsls	r7, r7, #3
   0x1fff07b0:	4639    	mov	r1, r7
   0x1fff07b2:	4628    	mov	r0, r5
   0x1fff07b4:	f003 fb88	bl	0x1fff3ec8
   0x1fff07b8:	4605    	mov	r5, r0
   0x1fff07ba:	0101    	lsls	r1, r0, #4
   0x1fff07bc:	1b48    	subs	r0, r1, r5
   0x1fff07be:	4639    	mov	r1, r7
   0x1fff07c0:	f003 fb82	bl	0x1fff3ec8
   0x1fff07c4:	1c46    	adds	r6, r0, #1
   0x1fff07c6:	4628    	mov	r0, r5
   0x1fff07c8:	2137    	movs	r1, #55	@ 0x37
   0x1fff07ca:	4348    	muls	r0, r1
   0x1fff07cc:	4639    	mov	r1, r7
   0x1fff07ce:	f003 fb7b	bl	0x1fff3ec8
   0x1fff07d2:	0201    	lsls	r1, r0, #8
   0x1fff07d4:	31ff    	adds	r1, #255	@ 0xff
   0x1fff07d6:	3101    	adds	r1, #1
   0x1fff07d8:	430e    	orrs	r6, r1
   0x1fff07da:	4628    	mov	r0, r5
   0x1fff07dc:	2123    	movs	r1, #35	@ 0x23
   0x1fff07de:	4348    	muls	r0, r1
   0x1fff07e0:	4639    	mov	r1, r7
   0x1fff07e2:	f003 fb71	bl	0x1fff3ec8
   0x1fff07e6:	2101    	movs	r1, #1
   0x1fff07e8:	0400    	lsls	r0, r0, #16
   0x1fff07ea:	0409    	lsls	r1, r1, #16
   0x1fff07ec:	1840    	adds	r0, r0, r1
   0x1fff07ee:	4330    	orrs	r0, r6
   0x1fff07f0:	6120    	str	r0, [r4, #16]
   0x1fff07f2:	bdf8    	pop	{r3, r4, r5, r6, r7, pc}
   0x1fff07f4:	4b5c    	ldr	r3, [pc, #368]	@ (0x1fff0968)
   0x1fff07f6:	605a    	str	r2, [r3, #4]
   0x1fff07f8:	2900    	cmp	r1, #0
   0x1fff07fa:	d005    	beq.n	0x1fff0808
   0x1fff07fc:	2902    	cmp	r1, #2
   0x1fff07fe:	d00a    	beq.n	0x1fff0816
   0x1fff0800:	2800    	cmp	r0, #0
   0x1fff0802:	d00e    	beq.n	0x1fff0822
   0x1fff0804:	2004    	movs	r0, #4
   0x1fff0806:	e002    	b.n	0x1fff080e
   0x1fff0808:	2800    	cmp	r0, #0
   0x1fff080a:	d002    	beq.n	0x1fff0812
   0x1fff080c:	2003    	movs	r0, #3
   0x1fff080e:	6018    	str	r0, [r3, #0]
   0x1fff0810:	4770    	bx	lr
   0x1fff0812:	2008    	movs	r0, #8
   0x1fff0814:	e7fb    	b.n	0x1fff080e
   0x1fff0816:	2800    	cmp	r0, #0
   0x1fff0818:	d001    	beq.n	0x1fff081e
   0x1fff081a:	2005    	movs	r0, #5
   0x1fff081c:	e7f7    	b.n	0x1fff080e
   0x1fff081e:	200a    	movs	r0, #10
   0x1fff0820:	e7f5    	b.n	0x1fff080e
   0x1fff0822:	2009    	movs	r0, #9
   0x1fff0824:	e7f3    	b.n	0x1fff080e
   0x1fff0826:	2205    	movs	r2, #5
   0x1fff0828:	4950    	ldr	r1, [pc, #320]	@ (0x1fff096c)
   0x1fff082a:	0692    	lsls	r2, r2, #26
   0x1fff082c:	628a    	str	r2, [r1, #40]	@ 0x28
   0x1fff082e:	4a4e    	ldr	r2, [pc, #312]	@ (0x1fff0968)
   0x1fff0830:	6050    	str	r0, [r2, #4]
   0x1fff0832:	2006    	movs	r0, #6
   0x1fff0834:	6010    	str	r0, [r2, #0]
   0x1fff0836:	6a08    	ldr	r0, [r1, #32]
   0x1fff0838:	00c0    	lsls	r0, r0, #3
   0x1fff083a:	d5fc    	bpl.n	0x1fff0836
   0x1fff083c:	4770    	bx	lr
   0x1fff083e:	b570    	push	{r4, r5, r6, lr}
   0x1fff0840:	460c    	mov	r4, r1
   0x1fff0842:	4615    	mov	r5, r2
   0x1fff0844:	4606    	mov	r6, r0
   0x1fff0846:	2104    	movs	r1, #4
   0x1fff0848:	f7ff fef8	bl	0x1fff063c
   0x1fff084c:	2800    	cmp	r0, #0
   0x1fff084e:	d10b    	bne.n	0x1fff0868
   0x1fff0850:	2104    	movs	r1, #4
   0x1fff0852:	4628    	mov	r0, r5
   0x1fff0854:	f7ff fef2	bl	0x1fff063c
   0x1fff0858:	2800    	cmp	r0, #0
   0x1fff085a:	d105    	bne.n	0x1fff0868
   0x1fff085c:	2104    	movs	r1, #4
   0x1fff085e:	4620    	mov	r0, r4
   0x1fff0860:	f7ff feec	bl	0x1fff063c
   0x1fff0864:	2800    	cmp	r0, #0
   0x1fff0866:	d006    	beq.n	0x1fff0876
   0x1fff0868:	2102    	movs	r1, #2
   0x1fff086a:	4630    	mov	r0, r6
   0x1fff086c:	f7ff fee6	bl	0x1fff063c
   0x1fff0870:	2800    	cmp	r0, #0
   0x1fff0872:	d002    	beq.n	0x1fff087a
   0x1fff0874:	e00d    	b.n	0x1fff0892
   0x1fff0876:	2002    	movs	r0, #2
   0x1fff0878:	bd70    	pop	{r4, r5, r6, pc}
   0x1fff087a:	2102    	movs	r1, #2
   0x1fff087c:	4628    	mov	r0, r5
   0x1fff087e:	f7ff fedd	bl	0x1fff063c
   0x1fff0882:	2800    	cmp	r0, #0
   0x1fff0884:	d105    	bne.n	0x1fff0892
   0x1fff0886:	2102    	movs	r1, #2
   0x1fff0888:	4620    	mov	r0, r4
   0x1fff088a:	f7ff fed7	bl	0x1fff063c
   0x1fff088e:	2800    	cmp	r0, #0
   0x1fff0890:	d001    	beq.n	0x1fff0896
   0x1fff0892:	2000    	movs	r0, #0
   0x1fff0894:	bd70    	pop	{r4, r5, r6, pc}
   0x1fff0896:	2001    	movs	r0, #1
   0x1fff0898:	bd70    	pop	{r4, r5, r6, pc}
   0x1fff089a:	b5fe    	push	{r1, r2, r3, r4, r5, r6, r7, lr}
   0x1fff089c:	4605    	mov	r5, r0
   0x1fff089e:	460c    	mov	r4, r1
   0x1fff08a0:	4616    	mov	r6, r2
   0x1fff08a2:	f7ff ffcc	bl	0x1fff083e
   0x1fff08a6:	4601    	mov	r1, r0
   0x1fff08a8:	9000    	str	r0, [sp, #0]
   0x1fff08aa:	462a    	mov	r2, r5
   0x1fff08ac:	2001    	movs	r0, #1
   0x1fff08ae:	f7ff ffa1	bl	0x1fff07f4
   0x1fff08b2:	4f2d    	ldr	r7, [pc, #180]	@ (0x1fff0968)
   0x1fff08b4:	9501    	str	r5, [sp, #4]
   0x1fff08b6:	e024    	b.n	0x1fff0902
   0x1fff08b8:	9800    	ldr	r0, [sp, #0]
   0x1fff08ba:	2800    	cmp	r0, #0
   0x1fff08bc:	d00d    	beq.n	0x1fff08da
   0x1fff08be:	2802    	cmp	r0, #2
   0x1fff08c0:	d011    	beq.n	0x1fff08e6
   0x1fff08c2:	8820    	ldrh	r0, [r4, #0]
   0x1fff08c4:	1ca4    	adds	r4, r4, #2
   0x1fff08c6:	60b8    	str	r0, [r7, #8]
   0x1fff08c8:	1cad    	adds	r5, r5, #2
   0x1fff08ca:	1eb6    	subs	r6, r6, #2
   0x1fff08cc:	2140    	movs	r1, #64	@ 0x40
   0x1fff08ce:	4628    	mov	r0, r5
   0x1fff08d0:	f7ff feb4	bl	0x1fff063c
   0x1fff08d4:	2800    	cmp	r0, #0
   0x1fff08d6:	d114    	bne.n	0x1fff0902
   0x1fff08d8:	e00a    	b.n	0x1fff08f0
   0x1fff08da:	7820    	ldrb	r0, [r4, #0]
   0x1fff08dc:	1c64    	adds	r4, r4, #1
   0x1fff08de:	60b8    	str	r0, [r7, #8]
   0x1fff08e0:	1c6d    	adds	r5, r5, #1
   0x1fff08e2:	1e76    	subs	r6, r6, #1
   0x1fff08e4:	e7f2    	b.n	0x1fff08cc
   0x1fff08e6:	cc01    	ldmia	r4!, {r0}
   0x1fff08e8:	60b8    	str	r0, [r7, #8]
   0x1fff08ea:	1d2d    	adds	r5, r5, #4
   0x1fff08ec:	1f36    	subs	r6, r6, #4
   0x1fff08ee:	e7ed    	b.n	0x1fff08cc
   0x1fff08f0:	9801    	ldr	r0, [sp, #4]
   0x1fff08f2:	f7ff ff98	bl	0x1fff0826
   0x1fff08f6:	462a    	mov	r2, r5
   0x1fff08f8:	9501    	str	r5, [sp, #4]
   0x1fff08fa:	2001    	movs	r0, #1
   0x1fff08fc:	9900    	ldr	r1, [sp, #0]
   0x1fff08fe:	f7ff ff79	bl	0x1fff07f4
   0x1fff0902:	2e00    	cmp	r6, #0
   0x1fff0904:	d1d8    	bne.n	0x1fff08b8
   0x1fff0906:	2140    	movs	r1, #64	@ 0x40
   0x1fff0908:	4628    	mov	r0, r5
   0x1fff090a:	f7ff fe97	bl	0x1fff063c
   0x1fff090e:	2800    	cmp	r0, #0
   0x1fff0910:	d002    	beq.n	0x1fff0918
   0x1fff0912:	9801    	ldr	r0, [sp, #4]
   0x1fff0914:	f7ff ff87	bl	0x1fff0826
   0x1fff0918:	2000    	movs	r0, #0
   0x1fff091a:	6038    	str	r0, [r7, #0]
   0x1fff091c:	6178    	str	r0, [r7, #20]
   0x1fff091e:	bdfe    	pop	{r1, r2, r3, r4, r5, r6, r7, pc}
   0x1fff0920:	b5f8    	push	{r3, r4, r5, r6, r7, lr}
   0x1fff0922:	4607    	mov	r7, r0
   0x1fff0924:	460c    	mov	r4, r1
   0x1fff0926:	4615    	mov	r5, r2
   0x1fff0928:	f7ff ff89	bl	0x1fff083e
   0x1fff092c:	4606    	mov	r6, r0
   0x1fff092e:	4601    	mov	r1, r0
   0x1fff0930:	463a    	mov	r2, r7
   0x1fff0932:	2000    	movs	r0, #0
   0x1fff0934:	f7ff ff5e	bl	0x1fff07f4
   0x1fff0938:	480b    	ldr	r0, [pc, #44]	@ (0x1fff0968)
   0x1fff093a:	e007    	b.n	0x1fff094c
   0x1fff093c:	2e00    	cmp	r6, #0
   0x1fff093e:	d00b    	beq.n	0x1fff0958
   0x1fff0940:	68c1    	ldr	r1, [r0, #12]
   0x1fff0942:	2e02    	cmp	r6, #2
   0x1fff0944:	d00d    	beq.n	0x1fff0962
   0x1fff0946:	8021    	strh	r1, [r4, #0]
   0x1fff0948:	1ca4    	adds	r4, r4, #2
   0x1fff094a:	1ead    	subs	r5, r5, #2
   0x1fff094c:	2d00    	cmp	r5, #0
   0x1fff094e:	d1f5    	bne.n	0x1fff093c
   0x1fff0950:	2100    	movs	r1, #0
   0x1fff0952:	6001    	str	r1, [r0, #0]
   0x1fff0954:	6141    	str	r1, [r0, #20]
   0x1fff0956:	bdf8    	pop	{r3, r4, r5, r6, r7, pc}
   0x1fff0958:	68c1    	ldr	r1, [r0, #12]
   0x1fff095a:	7021    	strb	r1, [r4, #0]
   0x1fff095c:	1c64    	adds	r4, r4, #1
   0x1fff095e:	1e6d    	subs	r5, r5, #1
   0x1fff0960:	e7f4    	b.n	0x1fff094c
   0x1fff0962:	c402    	stmia	r4!, {r1}
   0x1fff0964:	1f2d    	subs	r5, r5, #4
   0x1fff0966:	e7f1    	b.n	0x1fff094c
   0x1fff0968:	c080    	stmia	r0!, {r7}
   0x1fff096a:	4003    	ands	r3, r0
   0x1fff096c:	cfc0    	ldmia	r7, {r6, r7}
   0x1fff096e:	4003    	ands	r3, r0
   0x1fff0970:	b5f3    	push	{r0, r1, r4, r5, r6, r7, lr}
   0x1fff0972:	b087    	sub	sp, #28
   0x1fff0974:	2001    	movs	r0, #1
   0x1fff0976:	2600    	movs	r6, #0
   0x1fff0978:	9003    	str	r0, [sp, #12]
   0x1fff097a:	f000 f916	bl	0x1fff0baa
   0x1fff097e:	4604    	mov	r4, r0
   0x1fff0980:	f000 f910	bl	0x1fff0ba4
   0x1fff0984:	497c    	ldr	r1, [pc, #496]	@ (0x1fff0b78)
   0x1fff0986:	6808    	ldr	r0, [r1, #0]
   0x1fff0988:	2240    	movs	r2, #64	@ 0x40
   0x1fff098a:	4310    	orrs	r0, r2
   0x1fff098c:	6008    	str	r0, [r1, #0]
   0x1fff098e:	487b    	ldr	r0, [pc, #492]	@ (0x1fff0b7c)
   0x1fff0990:	6800    	ldr	r0, [r0, #0]
   0x1fff0992:	9002    	str	r0, [sp, #8]
   0x1fff0994:	6808    	ldr	r0, [r1, #0]
   0x1fff0996:	4390    	bics	r0, r2
   0x1fff0998:	6008    	str	r0, [r1, #0]
   0x1fff099a:	4620    	mov	r0, r4
   0x1fff099c:	f000 f8fa	bl	0x1fff0b94
   0x1fff09a0:	9807    	ldr	r0, [sp, #28]
   0x1fff09a2:	6801    	ldr	r1, [r0, #0]
   0x1fff09a4:	9808    	ldr	r0, [sp, #32]
   0x1fff09a6:	6041    	str	r1, [r0, #4]
   0x1fff09a8:	9807    	ldr	r0, [sp, #28]
   0x1fff09aa:	4976    	ldr	r1, [pc, #472]	@ (0x1fff0b84)
   0x1fff09ac:	6807    	ldr	r7, [r0, #0]
   0x1fff09ae:	4874    	ldr	r0, [pc, #464]	@ (0x1fff0b80)
   0x1fff09b0:	1838    	adds	r0, r7, r0
   0x1fff09b2:	4288    	cmp	r0, r1
   0x1fff09b4:	d208    	bcs.n	0x1fff09c8
   0x1fff09b6:	9807    	ldr	r0, [sp, #28]
   0x1fff09b8:	9902    	ldr	r1, [sp, #8]
   0x1fff09ba:	6840    	ldr	r0, [r0, #4]
   0x1fff09bc:	9000    	str	r0, [sp, #0]
   0x1fff09be:	4288    	cmp	r0, r1
   0x1fff09c0:	d802    	bhi.n	0x1fff09c8
   0x1fff09c2:	0200    	lsls	r0, r0, #8
   0x1fff09c4:	42b8    	cmp	r0, r7
   0x1fff09c6:	d204    	bcs.n	0x1fff09d2
   0x1fff09c8:	9908    	ldr	r1, [sp, #32]
   0x1fff09ca:	2001    	movs	r0, #1
   0x1fff09cc:	6008    	str	r0, [r1, #0]
   0x1fff09ce:	b009    	add	sp, #36	@ 0x24
   0x1fff09d0:	bdf0    	pop	{r4, r5, r6, r7, pc}
   0x1fff09d2:	9807    	ldr	r0, [sp, #28]
   0x1fff09d4:	6880    	ldr	r0, [r0, #8]
   0x1fff09d6:	9005    	str	r0, [sp, #20]
   0x1fff09d8:	2803    	cmp	r0, #3
   0x1fff09da:	d903    	bls.n	0x1fff09e4
   0x1fff09dc:	9808    	ldr	r0, [sp, #32]
   0x1fff09de:	2102    	movs	r1, #2
   0x1fff09e0:	6001    	str	r1, [r0, #0]
   0x1fff09e2:	e7f4    	b.n	0x1fff09ce
   0x1fff09e4:	2401    	movs	r4, #1
   0x1fff09e6:	2500    	movs	r5, #0
   0x1fff09e8:	9701    	str	r7, [sp, #4]
   0x1fff09ea:	9404    	str	r4, [sp, #16]
   0x1fff09ec:	e047    	b.n	0x1fff0a7e
   0x1fff09ee:	9900    	ldr	r1, [sp, #0]
   0x1fff09f0:	9801    	ldr	r0, [sp, #4]
   0x1fff09f2:	f003 fa69	bl	0x1fff3ec8
   0x1fff09f6:	9900    	ldr	r1, [sp, #0]
   0x1fff09f8:	9a01    	ldr	r2, [sp, #4]
   0x1fff09fa:	4341    	muls	r1, r0
   0x1fff09fc:	4291    	cmp	r1, r2
   0x1fff09fe:	d103    	bne.n	0x1fff0a08
   0x1fff0a00:	9004    	str	r0, [sp, #16]
   0x1fff0a02:	2000    	movs	r0, #0
   0x1fff0a04:	9003    	str	r0, [sp, #12]
   0x1fff0a06:	e03a    	b.n	0x1fff0a7e
   0x1fff0a08:	9a05    	ldr	r2, [sp, #20]
   0x1fff0a0a:	2a02    	cmp	r2, #2
   0x1fff0a0c:	d001    	beq.n	0x1fff0a12
   0x1fff0a0e:	2a03    	cmp	r2, #3
   0x1fff0a10:	d115    	bne.n	0x1fff0a3e
   0x1fff0a12:	2800    	cmp	r0, #0
   0x1fff0a14:	d013    	beq.n	0x1fff0a3e
   0x1fff0a16:	2d00    	cmp	r5, #0
   0x1fff0a18:	d00f    	beq.n	0x1fff0a3a
   0x1fff0a1a:	9a00    	ldr	r2, [sp, #0]
   0x1fff0a1c:	463b    	mov	r3, r7
   0x1fff0a1e:	436b    	muls	r3, r5
   0x1fff0a20:	4372    	muls	r2, r6
   0x1fff0a22:	1a9a    	subs	r2, r3, r2
   0x1fff0a24:	d500    	bpl.n	0x1fff0a28
   0x1fff0a26:	4252    	negs	r2, r2
   0x1fff0a28:	463b    	mov	r3, r7
   0x1fff0a2a:	4342    	muls	r2, r0
   0x1fff0a2c:	4363    	muls	r3, r4
   0x1fff0a2e:	1a59    	subs	r1, r3, r1
   0x1fff0a30:	d500    	bpl.n	0x1fff0a34
   0x1fff0a32:	4249    	negs	r1, r1
   0x1fff0a34:	4371    	muls	r1, r6
   0x1fff0a36:	4291    	cmp	r1, r2
   0x1fff0a38:	da01    	bge.n	0x1fff0a3e
   0x1fff0a3a:	4625    	mov	r5, r4
   0x1fff0a3c:	4606    	mov	r6, r0
   0x1fff0a3e:	9905    	ldr	r1, [sp, #20]
   0x1fff0a40:	2901    	cmp	r1, #1
   0x1fff0a42:	d001    	beq.n	0x1fff0a48
   0x1fff0a44:	2903    	cmp	r1, #3
   0x1fff0a46:	d116    	bne.n	0x1fff0a76
   0x1fff0a48:	2d00    	cmp	r5, #0
   0x1fff0a4a:	d024    	beq.n	0x1fff0a96
   0x1fff0a4c:	9900    	ldr	r1, [sp, #0]
   0x1fff0a4e:	463a    	mov	r2, r7
   0x1fff0a50:	1c40    	adds	r0, r0, #1
   0x1fff0a52:	436a    	muls	r2, r5
   0x1fff0a54:	4371    	muls	r1, r6
   0x1fff0a56:	1a52    	subs	r2, r2, r1
   0x1fff0a58:	d500    	bpl.n	0x1fff0a5c
   0x1fff0a5a:	4252    	negs	r2, r2
   0x1fff0a5c:	9900    	ldr	r1, [sp, #0]
   0x1fff0a5e:	463b    	mov	r3, r7
   0x1fff0a60:	4342    	muls	r2, r0
   0x1fff0a62:	4363    	muls	r3, r4
   0x1fff0a64:	4341    	muls	r1, r0
   0x1fff0a66:	1a59    	subs	r1, r3, r1
   0x1fff0a68:	d500    	bpl.n	0x1fff0a6c
   0x1fff0a6a:	4249    	negs	r1, r1
   0x1fff0a6c:	4371    	muls	r1, r6
   0x1fff0a6e:	4291    	cmp	r1, r2
   0x1fff0a70:	da01    	bge.n	0x1fff0a76
   0x1fff0a72:	4625    	mov	r5, r4
   0x1fff0a74:	4606    	mov	r6, r0
   0x1fff0a76:	9801    	ldr	r0, [sp, #4]
   0x1fff0a78:	1838    	adds	r0, r7, r0
   0x1fff0a7a:	1c64    	adds	r4, r4, #1
   0x1fff0a7c:	9001    	str	r0, [sp, #4]
   0x1fff0a7e:	9902    	ldr	r1, [sp, #8]
   0x1fff0a80:	9801    	ldr	r0, [sp, #4]
   0x1fff0a82:	4288    	cmp	r0, r1
   0x1fff0a84:	d802    	bhi.n	0x1fff0a8c
   0x1fff0a86:	9803    	ldr	r0, [sp, #12]
   0x1fff0a88:	2800    	cmp	r0, #0
   0x1fff0a8a:	d1b0    	bne.n	0x1fff09ee
   0x1fff0a8c:	9805    	ldr	r0, [sp, #20]
   0x1fff0a8e:	2700    	movs	r7, #0
   0x1fff0a90:	2800    	cmp	r0, #0
   0x1fff0a92:	d003    	beq.n	0x1fff0a9c
   0x1fff0a94:	e005    	b.n	0x1fff0aa2
   0x1fff0a96:	4625    	mov	r5, r4
   0x1fff0a98:	1c40    	adds	r0, r0, #1
   0x1fff0a9a:	e7eb    	b.n	0x1fff0a74
   0x1fff0a9c:	9803    	ldr	r0, [sp, #12]
   0x1fff0a9e:	2801    	cmp	r0, #1
   0x1fff0aa0:	d011    	beq.n	0x1fff0ac6
   0x1fff0aa2:	2d00    	cmp	r5, #0
   0x1fff0aa4:	d102    	bne.n	0x1fff0aac
   0x1fff0aa6:	9803    	ldr	r0, [sp, #12]
   0x1fff0aa8:	2801    	cmp	r0, #1
   0x1fff0aaa:	d00c    	beq.n	0x1fff0ac6
   0x1fff0aac:	9908    	ldr	r1, [sp, #32]
   0x1fff0aae:	2000    	movs	r0, #0
   0x1fff0ab0:	6008    	str	r0, [r1, #0]
   0x1fff0ab2:	9803    	ldr	r0, [sp, #12]
   0x1fff0ab4:	2800    	cmp	r0, #0
   0x1fff0ab6:	d00f    	beq.n	0x1fff0ad8
   0x1fff0ab8:	462c    	mov	r4, r5
   0x1fff0aba:	9604    	str	r6, [sp, #16]
   0x1fff0abc:	9807    	ldr	r0, [sp, #28]
   0x1fff0abe:	4a32    	ldr	r2, [pc, #200]	@ (0x1fff0b88)
   0x1fff0ac0:	6800    	ldr	r0, [r0, #0]
   0x1fff0ac2:	4360    	muls	r0, r4
   0x1fff0ac4:	e013    	b.n	0x1fff0aee
   0x1fff0ac6:	2001    	movs	r0, #1
   0x1fff0ac8:	2400    	movs	r4, #0
   0x1fff0aca:	9004    	str	r0, [sp, #16]
   0x1fff0acc:	9908    	ldr	r1, [sp, #32]
   0x1fff0ace:	2003    	movs	r0, #3
   0x1fff0ad0:	6008    	str	r0, [r1, #0]
   0x1fff0ad2:	9807    	ldr	r0, [sp, #28]
   0x1fff0ad4:	6801    	ldr	r1, [r0, #0]
   0x1fff0ad6:	e004    	b.n	0x1fff0ae2
   0x1fff0ad8:	2c01    	cmp	r4, #1
   0x1fff0ada:	d1ef    	bne.n	0x1fff0abc
   0x1fff0adc:	9807    	ldr	r0, [sp, #28]
   0x1fff0ade:	2400    	movs	r4, #0
   0x1fff0ae0:	6841    	ldr	r1, [r0, #4]
   0x1fff0ae2:	9808    	ldr	r0, [sp, #32]
   0x1fff0ae4:	6041    	str	r1, [r0, #4]
   0x1fff0ae6:	e00c    	b.n	0x1fff0b02
   0x1fff0ae8:	1c7f    	adds	r7, r7, #1
   0x1fff0aea:	2f04    	cmp	r7, #4
   0x1fff0aec:	d004    	beq.n	0x1fff0af8
   0x1fff0aee:	4601    	mov	r1, r0
   0x1fff0af0:	40b9    	lsls	r1, r7
   0x1fff0af2:	0049    	lsls	r1, r1, #1
   0x1fff0af4:	4291    	cmp	r1, r2
   0x1fff0af6:	d3f7    	bcc.n	0x1fff0ae8
   0x1fff0af8:	9904    	ldr	r1, [sp, #16]
   0x1fff0afa:	f003 f9e5	bl	0x1fff3ec8
   0x1fff0afe:	9908    	ldr	r1, [sp, #32]
   0x1fff0b00:	6048    	str	r0, [r1, #4]
   0x1fff0b02:	4922    	ldr	r1, [pc, #136]	@ (0x1fff0b8c)
   0x1fff0b04:	9804    	ldr	r0, [sp, #16]
   0x1fff0b06:	6388    	str	r0, [r1, #56]	@ 0x38
   0x1fff0b08:	4b21    	ldr	r3, [pc, #132]	@ (0x1fff0b90)
   0x1fff0b0a:	2580    	movs	r5, #128	@ 0x80
   0x1fff0b0c:	6b98    	ldr	r0, [r3, #56]	@ 0x38
   0x1fff0b0e:	2c00    	cmp	r4, #0
   0x1fff0b10:	d00b    	beq.n	0x1fff0b2a
   0x1fff0b12:	43a8    	bics	r0, r5
   0x1fff0b14:	6398    	str	r0, [r3, #56]	@ 0x38
   0x1fff0b16:	0178    	lsls	r0, r7, #5
   0x1fff0b18:	1e64    	subs	r4, r4, #1
   0x1fff0b1a:	4320    	orrs	r0, r4
   0x1fff0b1c:	4c1b    	ldr	r4, [pc, #108]	@ (0x1fff0b8c)
   0x1fff0b1e:	3c40    	subs	r4, #64	@ 0x40
   0x1fff0b20:	60a0    	str	r0, [r4, #8]
   0x1fff0b22:	9807    	ldr	r0, [sp, #28]
   0x1fff0b24:	68c2    	ldr	r2, [r0, #12]
   0x1fff0b26:	1c50    	adds	r0, r2, #1
   0x1fff0b28:	e005    	b.n	0x1fff0b36
   0x1fff0b2a:	4328    	orrs	r0, r5
   0x1fff0b2c:	6398    	str	r0, [r3, #56]	@ 0x38
   0x1fff0b2e:	e74e    	b.n	0x1fff09ce
   0x1fff0b30:	2a00    	cmp	r2, #0
   0x1fff0b32:	d000    	beq.n	0x1fff0b36
   0x1fff0b34:	1e40    	subs	r0, r0, #1
   0x1fff0b36:	68e6    	ldr	r6, [r4, #12]
   0x1fff0b38:	07f6    	lsls	r6, r6, #31
   0x1fff0b3a:	d101    	bne.n	0x1fff0b40
   0x1fff0b3c:	2800    	cmp	r0, #0
   0x1fff0b3e:	d1f7    	bne.n	0x1fff0b30
   0x1fff0b40:	68e0    	ldr	r0, [r4, #12]
   0x1fff0b42:	07c0    	lsls	r0, r0, #31
   0x1fff0b44:	d00a    	beq.n	0x1fff0b5c
   0x1fff0b46:	2003    	movs	r0, #3
   0x1fff0b48:	6308    	str	r0, [r1, #48]	@ 0x30
   0x1fff0b4a:	2001    	movs	r0, #1
   0x1fff0b4c:	6348    	str	r0, [r1, #52]	@ 0x34
   0x1fff0b4e:	2200    	movs	r2, #0
   0x1fff0b50:	634a    	str	r2, [r1, #52]	@ 0x34
   0x1fff0b52:	6348    	str	r0, [r1, #52]	@ 0x34
   0x1fff0b54:	6b48    	ldr	r0, [r1, #52]	@ 0x34
   0x1fff0b56:	07c0    	lsls	r0, r0, #31
   0x1fff0b58:	d0fc    	beq.n	0x1fff0b54
   0x1fff0b5a:	e738    	b.n	0x1fff09ce
   0x1fff0b5c:	6b98    	ldr	r0, [r3, #56]	@ 0x38
   0x1fff0b5e:	4328    	orrs	r0, r5
   0x1fff0b60:	6398    	str	r0, [r3, #56]	@ 0x38
   0x1fff0b62:	9808    	ldr	r0, [sp, #32]
   0x1fff0b64:	2204    	movs	r2, #4
   0x1fff0b66:	6002    	str	r2, [r0, #0]
   0x1fff0b68:	2001    	movs	r0, #1
   0x1fff0b6a:	6388    	str	r0, [r1, #56]	@ 0x38
   0x1fff0b6c:	9807    	ldr	r0, [sp, #28]
   0x1fff0b6e:	6801    	ldr	r1, [r0, #0]
   0x1fff0b70:	9808    	ldr	r0, [sp, #32]
   0x1fff0b72:	6041    	str	r1, [r0, #4]
   0x1fff0b74:	e72b    	b.n	0x1fff09ce
   0x1fff0b76:	0000    	movs	r0, r0
   0x1fff0b78:	c000    	stmia	r0!, {}
   0x1fff0b7a:	4003    	ands	r3, r0
   0x1fff0b7c:	046c    	lsls	r4, r5, #17
   0x1fff0b7e:	0000    	movs	r0, r0
   0x1fff0b80:	d8f0    	bhi.n	0x1fff0b64
   0x1fff0b82:	ffff 3a99			@ <UNDEFINED> instruction: 0xffff3a99
   0x1fff0b86:	0000    	movs	r0, r0
   0x1fff0b88:	6160    	str	r0, [r4, #20]
   0x1fff0b8a:	0002    	movs	r2, r0
   0x1fff0b8c:	8040    	strh	r0, [r0, #2]
   0x1fff0b8e:	4004    	ands	r4, r0
   0x1fff0b90:	8200    	strh	r0, [r0, #16]
   0x1fff0b92:	4004    	ands	r4, r0
   0x1fff0b94:	493e    	ldr	r1, [pc, #248]	@ (0x1fff0c90)
   0x1fff0b96:	b280    	uxth	r0, r0
   0x1fff0b98:	4308    	orrs	r0, r1
   0x1fff0b9a:	493e    	ldr	r1, [pc, #248]	@ (0x1fff0c94)
   0x1fff0b9c:	6248    	str	r0, [r1, #36]	@ 0x24
   0x1fff0b9e:	483e    	ldr	r0, [pc, #248]	@ (0x1fff0c98)
   0x1fff0ba0:	6800    	ldr	r0, [r0, #0]
   0x1fff0ba2:	4770    	bx	lr
   0x1fff0ba4:	2160    	movs	r1, #96	@ 0x60
   0x1fff0ba6:	4308    	orrs	r0, r1
   0x1fff0ba8:	e7f4    	b.n	0x1fff0b94
   0x1fff0baa:	483a    	ldr	r0, [pc, #232]	@ (0x1fff0c94)
   0x1fff0bac:	6a40    	ldr	r0, [r0, #36]	@ 0x24
   0x1fff0bae:	4770    	bx	lr
   0x1fff0bb0:	b5f8    	push	{r3, r4, r5, r6, r7, lr}
   0x1fff0bb2:	4602    	mov	r2, r0
   0x1fff0bb4:	4837    	ldr	r0, [pc, #220]	@ (0x1fff0c94)
   0x1fff0bb6:	460c    	mov	r4, r1
   0x1fff0bb8:	6a40    	ldr	r0, [r0, #36]	@ 0x24
   0x1fff0bba:	9000    	str	r0, [sp, #0]
   0x1fff0bbc:	f7ff fff2	bl	0x1fff0ba4
   0x1fff0bc0:	4b35    	ldr	r3, [pc, #212]	@ (0x1fff0c98)
   0x1fff0bc2:	6818    	ldr	r0, [r3, #0]
   0x1fff0bc4:	2140    	movs	r1, #64	@ 0x40
   0x1fff0bc6:	4308    	orrs	r0, r1
   0x1fff0bc8:	6018    	str	r0, [r3, #0]
   0x1fff0bca:	4835    	ldr	r0, [pc, #212]	@ (0x1fff0ca0)
   0x1fff0bcc:	4933    	ldr	r1, [pc, #204]	@ (0x1fff0c9c)
   0x1fff0bce:	6101    	str	r1, [r0, #16]
   0x1fff0bd0:	4d34    	ldr	r5, [pc, #208]	@ (0x1fff0ca4)
   0x1fff0bd2:	217d    	movs	r1, #125	@ 0x7d
   0x1fff0bd4:	6810    	ldr	r0, [r2, #0]
   0x1fff0bd6:	00c9    	lsls	r1, r1, #3
   0x1fff0bd8:	682d    	ldr	r5, [r5, #0]
   0x1fff0bda:	4341    	muls	r1, r0
   0x1fff0bdc:	42a9    	cmp	r1, r5
   0x1fff0bde:	d807    	bhi.n	0x1fff0bf0
   0x1fff0be0:	2800    	cmp	r0, #0
   0x1fff0be2:	d005    	beq.n	0x1fff0bf0
   0x1fff0be4:	6850    	ldr	r0, [r2, #4]
   0x1fff0be6:	2803    	cmp	r0, #3
   0x1fff0be8:	d904    	bls.n	0x1fff0bf4
   0x1fff0bea:	2002    	movs	r0, #2
   0x1fff0bec:	6020    	str	r0, [r4, #0]
   0x1fff0bee:	e044    	b.n	0x1fff0c7a
   0x1fff0bf0:	2001    	movs	r0, #1
   0x1fff0bf2:	e7fb    	b.n	0x1fff0bec
   0x1fff0bf4:	2000    	movs	r0, #0
   0x1fff0bf6:	6020    	str	r0, [r4, #0]
   0x1fff0bf8:	4c26    	ldr	r4, [pc, #152]	@ (0x1fff0c94)
   0x1fff0bfa:	3cc0    	subs	r4, #192	@ 0xc0
   0x1fff0bfc:	6a21    	ldr	r1, [r4, #32]
   0x1fff0bfe:	6220    	str	r0, [r4, #32]
   0x1fff0c00:	b2c9    	uxtb	r1, r1
   0x1fff0c02:	468c    	mov	r12, r1
   0x1fff0c04:	6918    	ldr	r0, [r3, #16]
   0x1fff0c06:	0a00    	lsrs	r0, r0, #8
   0x1fff0c08:	0200    	lsls	r0, r0, #8
   0x1fff0c0a:	1c80    	adds	r0, r0, #2
   0x1fff0c0c:	6118    	str	r0, [r3, #16]
   0x1fff0c0e:	6818    	ldr	r0, [r3, #0]
   0x1fff0c10:	4925    	ldr	r1, [pc, #148]	@ (0x1fff0ca8)
   0x1fff0c12:	4008    	ands	r0, r1
   0x1fff0c14:	6018    	str	r0, [r3, #0]
   0x1fff0c16:	6850    	ldr	r0, [r2, #4]
   0x1fff0c18:	2800    	cmp	r0, #0
   0x1fff0c1a:	d024    	beq.n	0x1fff0c66
   0x1fff0c1c:	6811    	ldr	r1, [r2, #0]
   0x1fff0c1e:	2506    	movs	r5, #6
   0x1fff0c20:	4369    	muls	r1, r5
   0x1fff0c22:	4d22    	ldr	r5, [pc, #136]	@ (0x1fff0cac)
   0x1fff0c24:	0040    	lsls	r0, r0, #1
   0x1fff0c26:	1949    	adds	r1, r1, r5
   0x1fff0c28:	1808    	adds	r0, r1, r0
   0x1fff0c2a:	3808    	subs	r0, #8
   0x1fff0c2c:	7801    	ldrb	r1, [r0, #0]
   0x1fff0c2e:	7840    	ldrb	r0, [r0, #1]
   0x1fff0c30:	6220    	str	r0, [r4, #32]
   0x1fff0c32:	691d    	ldr	r5, [r3, #16]
   0x1fff0c34:	2403    	movs	r4, #3
   0x1fff0c36:	03a4    	lsls	r4, r4, #14
   0x1fff0c38:	43a5    	bics	r5, r4
   0x1fff0c3a:	090c    	lsrs	r4, r1, #4
   0x1fff0c3c:	4f1c    	ldr	r7, [pc, #112]	@ (0x1fff0cb0)
   0x1fff0c3e:	0066    	lsls	r6, r4, #1
   0x1fff0c40:	5bbe    	ldrh	r6, [r7, r6]
   0x1fff0c42:	4335    	orrs	r5, r6
   0x1fff0c44:	611d    	str	r5, [r3, #16]
   0x1fff0c46:	681d    	ldr	r5, [r3, #0]
   0x1fff0c48:	4e17    	ldr	r6, [pc, #92]	@ (0x1fff0ca8)
   0x1fff0c4a:	00a4    	lsls	r4, r4, #2
   0x1fff0c4c:	4035    	ands	r5, r6
   0x1fff0c4e:	463e    	mov	r6, r7
   0x1fff0c50:	3e30    	subs	r6, #48	@ 0x30
   0x1fff0c52:	5934    	ldr	r4, [r6, r4]
   0x1fff0c54:	4325    	orrs	r5, r4
   0x1fff0c56:	601d    	str	r5, [r3, #0]
   0x1fff0c58:	691c    	ldr	r4, [r3, #16]
   0x1fff0c5a:	0709    	lsls	r1, r1, #28
   0x1fff0c5c:	0a24    	lsrs	r4, r4, #8
   0x1fff0c5e:	0224    	lsls	r4, r4, #8
   0x1fff0c60:	0f09    	lsrs	r1, r1, #28
   0x1fff0c62:	430c    	orrs	r4, r1
   0x1fff0c64:	611c    	str	r4, [r3, #16]
   0x1fff0c66:	4584    	cmp	r12, r0
   0x1fff0c68:	d907    	bls.n	0x1fff0c7a
   0x1fff0c6a:	6891    	ldr	r1, [r2, #8]
   0x1fff0c6c:	2000    	movs	r0, #0
   0x1fff0c6e:	2219    	movs	r2, #25
   0x1fff0c70:	4351    	muls	r1, r2
   0x1fff0c72:	e000    	b.n	0x1fff0c76
   0x1fff0c74:	1c40    	adds	r0, r0, #1
   0x1fff0c76:	4281    	cmp	r1, r0
   0x1fff0c78:	d8fc    	bhi.n	0x1fff0c74
   0x1fff0c7a:	4809    	ldr	r0, [pc, #36]	@ (0x1fff0ca0)
   0x1fff0c7c:	2100    	movs	r1, #0
   0x1fff0c7e:	6101    	str	r1, [r0, #16]
   0x1fff0c80:	6818    	ldr	r0, [r3, #0]
   0x1fff0c82:	2140    	movs	r1, #64	@ 0x40
   0x1fff0c84:	4388    	bics	r0, r1
   0x1fff0c86:	6018    	str	r0, [r3, #0]
   0x1fff0c88:	9800    	ldr	r0, [sp, #0]
   0x1fff0c8a:	f7ff ff83	bl	0x1fff0b94
   0x1fff0c8e:	bdf8    	pop	{r3, r4, r5, r6, r7, pc}
   0x1fff0c90:	0000    	movs	r0, r0
   0x1fff0c92:	c0de    	stmia	r0!, {r1, r2, r3, r4, r6, r7}
   0x1fff0c94:	8200    	strh	r0, [r0, #16]
   0x1fff0c96:	4004    	ands	r4, r0
   0x1fff0c98:	c000    	stmia	r0!, {}
   0x1fff0c9a:	4003    	ands	r3, r0
   0x1fff0c9c:	5678    	ldrsb	r0, [r7, r1]
   0x1fff0c9e:	1234    	asrs	r4, r6, #8
   0x1fff0ca0:	83c0    	strh	r0, [r0, #30]
   0x1fff0ca2:	4004    	ands	r4, r0
   0x1fff0ca4:	046c    	lsls	r4, r5, #17
   0x1fff0ca6:	0000    	movs	r0, r0
   0x1fff0ca8:	dfef    	svc	239	@ 0xef
   0x1fff0caa:	fffb 04d4	vsri.64	q8, q2, #5
   0x1fff0cae:	0000    	movs	r0, r0
   0x1fff0cb0:	1f0c    	subs	r4, r1, #4
   0x1fff0cb2:	1fff    	subs	r7, r7, #7
   0x1fff0cb4:	b570    	push	{r4, r5, r6, lr}
   0x1fff0cb6:	4605    	mov	r5, r0
   0x1fff0cb8:	460c    	mov	r4, r1
   0x1fff0cba:	6ec0    	ldr	r0, [r0, #108]	@ 0x6c
   0x1fff0cbc:	f002 f9cf	bl	0x1fff305e
   0x1fff0cc0:	6ee9    	ldr	r1, [r5, #108]	@ 0x6c
   0x1fff0cc2:	2001    	movs	r0, #1
   0x1fff0cc4:	31ff    	adds	r1, #255	@ 0xff
   0x1fff0cc6:	3101    	adds	r1, #1
   0x1fff0cc8:	40a0    	lsls	r0, r4
   0x1fff0cca:	688a    	ldr	r2, [r1, #8]
   0x1fff0ccc:	0623    	lsls	r3, r4, #24
   0x1fff0cce:	d504    	bpl.n	0x1fff0cda
   0x1fff0cd0:	0723    	lsls	r3, r4, #28
   0x1fff0cd2:	0f1b    	lsrs	r3, r3, #28
   0x1fff0cd4:	2001    	movs	r0, #1
   0x1fff0cd6:	0400    	lsls	r0, r0, #16
   0x1fff0cd8:	4098    	lsls	r0, r3
   0x1fff0cda:	4302    	orrs	r2, r0
   0x1fff0cdc:	608a    	str	r2, [r1, #8]
   0x1fff0cde:	bd70    	pop	{r4, r5, r6, pc}
   0x1fff0ce0:	b570    	push	{r4, r5, r6, lr}
   0x1fff0ce2:	4604    	mov	r4, r0
   0x1fff0ce4:	6ec0    	ldr	r0, [r0, #108]	@ 0x6c
   0x1fff0ce6:	2500    	movs	r5, #0
   0x1fff0ce8:	30ff    	adds	r0, #255	@ 0xff
   0x1fff0cea:	3001    	adds	r0, #1
   0x1fff0cec:	4621    	mov	r1, r4
   0x1fff0cee:	60c5    	str	r5, [r0, #12]
   0x1fff0cf0:	315f    	adds	r1, #95	@ 0x5f
   0x1fff0cf2:	4628    	mov	r0, r5
   0x1fff0cf4:	f003 f93a	bl	0x1fff3f6c
   0x1fff0cf8:	3480    	adds	r4, #128	@ 0x80
   0x1fff0cfa:	7025    	strb	r5, [r4, #0]
   0x1fff0cfc:	2000    	movs	r0, #0
   0x1fff0cfe:	bd70    	pop	{r4, r5, r6, pc}
   0x1fff0d00:	6ec0    	ldr	r0, [r0, #108]	@ 0x6c
   0x1fff0d02:	2100    	movs	r1, #0
   0x1fff0d04:	30ff    	adds	r0, #255	@ 0xff
   0x1fff0d06:	3021    	adds	r0, #33	@ 0x21
   0x1fff0d08:	7101    	strb	r1, [r0, #4]
   0x1fff0d0a:	4608    	mov	r0, r1
   0x1fff0d0c:	4770    	bx	lr
   0x1fff0d0e:	b510    	push	{r4, lr}
   0x1fff0d10:	4603    	mov	r3, r0
   0x1fff0d12:	460a    	mov	r2, r1
   0x1fff0d14:	6ec0    	ldr	r0, [r0, #108]	@ 0x6c
   0x1fff0d16:	21ea    	movs	r1, #234	@ 0xea
   0x1fff0d18:	5c0c    	ldrb	r4, [r1, r0]
   0x1fff0d1a:	3380    	adds	r3, #128	@ 0x80
   0x1fff0d1c:	78d9    	ldrb	r1, [r3, #3]
   0x1fff0d1e:	2340    	movs	r3, #64	@ 0x40
   0x1fff0d20:	f002 faa7	bl	0x1fff3272
   0x1fff0d24:	bd10    	pop	{r4, pc}
   0x1fff0d26:	b5fe    	push	{r1, r2, r3, r4, r5, r6, r7, lr}
   0x1fff0d28:	4604    	mov	r4, r0
   0x1fff0d2a:	6ec0    	ldr	r0, [r0, #108]	@ 0x6c
   0x1fff0d2c:	6f65    	ldr	r5, [r4, #116]	@ 0x74
   0x1fff0d2e:	30e0    	adds	r0, #224	@ 0xe0
   0x1fff0d30:	7a80    	ldrb	r0, [r0, #10]
   0x1fff0d32:	2d40    	cmp	r5, #64	@ 0x40
   0x1fff0d34:	d900    	bls.n	0x1fff0d38
   0x1fff0d36:	2540    	movs	r5, #64	@ 0x40
   0x1fff0d38:	4626    	mov	r6, r4
   0x1fff0d3a:	9400    	str	r4, [sp, #0]
   0x1fff0d3c:	3680    	adds	r6, #128	@ 0x80
   0x1fff0d3e:	69f3    	ldr	r3, [r6, #28]
   0x1fff0d40:	6f20    	ldr	r0, [r4, #112]	@ 0x70
   0x1fff0d42:	462a    	mov	r2, r5
   0x1fff0d44:	4669    	mov	r1, sp
   0x1fff0d46:	4798    	blx	r3
   0x1fff0d48:	78b1    	ldrb	r1, [r6, #2]
   0x1fff0d4a:	462b    	mov	r3, r5
   0x1fff0d4c:	6ee0    	ldr	r0, [r4, #108]	@ 0x6c
   0x1fff0d4e:	9a00    	ldr	r2, [sp, #0]
   0x1fff0d50:	f002 fb19	bl	0x1fff3386
   0x1fff0d54:	6f20    	ldr	r0, [r4, #112]	@ 0x70
   0x1fff0d56:	1940    	adds	r0, r0, r5
   0x1fff0d58:	6720    	str	r0, [r4, #112]	@ 0x70
   0x1fff0d5a:	6f60    	ldr	r0, [r4, #116]	@ 0x74
   0x1fff0d5c:	1b47    	subs	r7, r0, r5
   0x1fff0d5e:	4620    	mov	r0, r4
   0x1fff0d60:	3067    	adds	r0, #103	@ 0x67
   0x1fff0d62:	6767    	str	r7, [r4, #116]	@ 0x74
   0x1fff0d64:	9001    	str	r0, [sp, #4]
   0x1fff0d66:	f003 f8f7	bl	0x1fff3f58
   0x1fff0d6a:	1b40    	subs	r0, r0, r5
   0x1fff0d6c:	9901    	ldr	r1, [sp, #4]
   0x1fff0d6e:	f003 f8fd	bl	0x1fff3f6c
   0x1fff0d72:	2f00    	cmp	r7, #0
   0x1fff0d74:	d006    	beq.n	0x1fff0d84
   0x1fff0d76:	7830    	ldrb	r0, [r6, #0]
   0x1fff0d78:	2802    	cmp	r0, #2
   0x1fff0d7a:	d002    	beq.n	0x1fff0d82
   0x1fff0d7c:	2000    	movs	r0, #0
   0x1fff0d7e:	3460    	adds	r4, #96	@ 0x60
   0x1fff0d80:	72e0    	strb	r0, [r4, #11]
   0x1fff0d82:	bdfe    	pop	{r1, r2, r3, r4, r5, r6, r7, pc}
   0x1fff0d84:	2003    	movs	r0, #3
   0x1fff0d86:	7030    	strb	r0, [r6, #0]
   0x1fff0d88:	e7f8    	b.n	0x1fff0d7c
   0x1fff0d8a:	b570    	push	{r4, r5, r6, lr}
   0x1fff0d8c:	4601    	mov	r1, r0
   0x1fff0d8e:	4604    	mov	r4, r0
   0x1fff0d90:	315f    	adds	r1, #95	@ 0x5f
   0x1fff0d92:	460e    	mov	r6, r1
   0x1fff0d94:	48f9    	ldr	r0, [pc, #996]	@ (0x1fff117c)
   0x1fff0d96:	f003 f8e9	bl	0x1fff3f6c
   0x1fff0d9a:	4625    	mov	r5, r4
   0x1fff0d9c:	3580    	adds	r5, #128	@ 0x80
   0x1fff0d9e:	78a9    	ldrb	r1, [r5, #2]
   0x1fff0da0:	230d    	movs	r3, #13
   0x1fff0da2:	4632    	mov	r2, r6
   0x1fff0da4:	6ee0    	ldr	r0, [r4, #108]	@ 0x6c
   0x1fff0da6:	f002 faee	bl	0x1fff3386
   0x1fff0daa:	2005    	movs	r0, #5
   0x1fff0dac:	7028    	strb	r0, [r5, #0]
   0x1fff0dae:	bd70    	pop	{r4, r5, r6, pc}
   0x1fff0db0:	b5f8    	push	{r3, r4, r5, r6, r7, lr}
   0x1fff0db2:	4604    	mov	r4, r0
   0x1fff0db4:	4626    	mov	r6, r4
   0x1fff0db6:	3680    	adds	r6, #128	@ 0x80
   0x1fff0db8:	6f82    	ldr	r2, [r0, #120]	@ 0x78
   0x1fff0dba:	69b3    	ldr	r3, [r6, #24]
   0x1fff0dbc:	6f00    	ldr	r0, [r0, #112]	@ 0x70
   0x1fff0dbe:	1f31    	subs	r1, r6, #4
   0x1fff0dc0:	4798    	blx	r3
   0x1fff0dc2:	6fa5    	ldr	r5, [r4, #120]	@ 0x78
   0x1fff0dc4:	6f20    	ldr	r0, [r4, #112]	@ 0x70
   0x1fff0dc6:	1940    	adds	r0, r0, r5
   0x1fff0dc8:	6720    	str	r0, [r4, #112]	@ 0x70
   0x1fff0dca:	6f60    	ldr	r0, [r4, #116]	@ 0x74
   0x1fff0dcc:	1b47    	subs	r7, r0, r5
   0x1fff0dce:	4620    	mov	r0, r4
   0x1fff0dd0:	3067    	adds	r0, #103	@ 0x67
   0x1fff0dd2:	6767    	str	r7, [r4, #116]	@ 0x74
   0x1fff0dd4:	9000    	str	r0, [sp, #0]
   0x1fff0dd6:	f003 f8bf	bl	0x1fff3f58
   0x1fff0dda:	1b40    	subs	r0, r0, r5
   0x1fff0ddc:	9900    	ldr	r1, [sp, #0]
   0x1fff0dde:	f003 f8c5	bl	0x1fff3f6c
   0x1fff0de2:	2f00    	cmp	r7, #0
   0x1fff0de4:	d007    	beq.n	0x1fff0df6
   0x1fff0de6:	7830    	ldrb	r0, [r6, #0]
   0x1fff0de8:	2805    	cmp	r0, #5
   0x1fff0dea:	d004    	beq.n	0x1fff0df6
   0x1fff0dec:	4620    	mov	r0, r4
   0x1fff0dee:	6fe1    	ldr	r1, [r4, #124]	@ 0x7c
   0x1fff0df0:	f7ff ff8d	bl	0x1fff0d0e
   0x1fff0df4:	bdf8    	pop	{r3, r4, r5, r6, r7, pc}
   0x1fff0df6:	2100    	movs	r1, #0
   0x1fff0df8:	206b    	movs	r0, #107	@ 0x6b
   0x1fff0dfa:	5501    	strb	r1, [r0, r4]
   0x1fff0dfc:	4620    	mov	r0, r4
   0x1fff0dfe:	f7ff ffc4	bl	0x1fff0d8a
   0x1fff0e02:	67e4    	str	r4, [r4, #124]	@ 0x7c
   0x1fff0e04:	bdf8    	pop	{r3, r4, r5, r6, r7, pc}
   0x1fff0e06:	b5f8    	push	{r3, r4, r5, r6, r7, lr}
   0x1fff0e08:	4604    	mov	r4, r0
   0x1fff0e0a:	4625    	mov	r5, r4
   0x1fff0e0c:	3580    	adds	r5, #128	@ 0x80
   0x1fff0e0e:	6f82    	ldr	r2, [r0, #120]	@ 0x78
   0x1fff0e10:	6a2b    	ldr	r3, [r5, #32]
   0x1fff0e12:	6f00    	ldr	r0, [r0, #112]	@ 0x70
   0x1fff0e14:	4621    	mov	r1, r4
   0x1fff0e16:	4798    	blx	r3
   0x1fff0e18:	2800    	cmp	r0, #0
   0x1fff0e1a:	d001    	beq.n	0x1fff0e20
   0x1fff0e1c:	2000    	movs	r0, #0
   0x1fff0e1e:	6068    	str	r0, [r5, #4]
   0x1fff0e20:	6fa6    	ldr	r6, [r4, #120]	@ 0x78
   0x1fff0e22:	6f20    	ldr	r0, [r4, #112]	@ 0x70
   0x1fff0e24:	1980    	adds	r0, r0, r6
   0x1fff0e26:	6720    	str	r0, [r4, #112]	@ 0x70
   0x1fff0e28:	6f60    	ldr	r0, [r4, #116]	@ 0x74
   0x1fff0e2a:	1b87    	subs	r7, r0, r6
   0x1fff0e2c:	4620    	mov	r0, r4
   0x1fff0e2e:	3067    	adds	r0, #103	@ 0x67
   0x1fff0e30:	6767    	str	r7, [r4, #116]	@ 0x74
   0x1fff0e32:	9000    	str	r0, [sp, #0]
   0x1fff0e34:	f003 f890	bl	0x1fff3f58
   0x1fff0e38:	1b80    	subs	r0, r0, r6
   0x1fff0e3a:	9900    	ldr	r1, [sp, #0]
   0x1fff0e3c:	f003 f896	bl	0x1fff3f6c
   0x1fff0e40:	2f00    	cmp	r7, #0
   0x1fff0e42:	d002    	beq.n	0x1fff0e4a
   0x1fff0e44:	7828    	ldrb	r0, [r5, #0]
   0x1fff0e46:	2805    	cmp	r0, #5
   0x1fff0e48:	d109    	bne.n	0x1fff0e5e
   0x1fff0e4a:	6869    	ldr	r1, [r5, #4]
   0x1fff0e4c:	2001    	movs	r0, #1
   0x1fff0e4e:	2900    	cmp	r1, #0
   0x1fff0e50:	d000    	beq.n	0x1fff0e54
   0x1fff0e52:	2000    	movs	r0, #0
   0x1fff0e54:	216b    	movs	r1, #107	@ 0x6b
   0x1fff0e56:	5508    	strb	r0, [r1, r4]
   0x1fff0e58:	4620    	mov	r0, r4
   0x1fff0e5a:	f7ff ff96	bl	0x1fff0d8a
   0x1fff0e5e:	bdf8    	pop	{r3, r4, r5, r6, r7, pc}
   0x1fff0e60:	b5f8    	push	{r3, r4, r5, r6, r7, lr}
   0x1fff0e62:	4604    	mov	r4, r0
   0x1fff0e64:	3051    	adds	r0, #81	@ 0x51
   0x1fff0e66:	f003 f877	bl	0x1fff3f58
   0x1fff0e6a:	ba00    	rev	r0, r0
   0x1fff0e6c:	4625    	mov	r5, r4
   0x1fff0e6e:	0a01    	lsrs	r1, r0, #8
   0x1fff0e70:	3540    	adds	r5, #64	@ 0x40
   0x1fff0e72:	7d28    	ldrb	r0, [r5, #20]
   0x1fff0e74:	0209    	lsls	r1, r1, #8
   0x1fff0e76:	4626    	mov	r6, r4
   0x1fff0e78:	4301    	orrs	r1, r0
   0x1fff0e7a:	3680    	adds	r6, #128	@ 0x80
   0x1fff0e7c:	6930    	ldr	r0, [r6, #16]
   0x1fff0e7e:	4607    	mov	r7, r0
   0x1fff0e80:	4348    	muls	r0, r1
   0x1fff0e82:	6720    	str	r0, [r4, #112]	@ 0x70
   0x1fff0e84:	9000    	str	r0, [sp, #0]
   0x1fff0e86:	7be8    	ldrb	r0, [r5, #15]
   0x1fff0e88:	282f    	cmp	r0, #47	@ 0x2f
   0x1fff0e8a:	d00a    	beq.n	0x1fff0ea2
   0x1fff0e8c:	dc04    	bgt.n	0x1fff0e98
   0x1fff0e8e:	2828    	cmp	r0, #40	@ 0x28
   0x1fff0e90:	d007    	beq.n	0x1fff0ea2
   0x1fff0e92:	282a    	cmp	r0, #42	@ 0x2a
   0x1fff0e94:	d111    	bne.n	0x1fff0eba
   0x1fff0e96:	e004    	b.n	0x1fff0ea2
   0x1fff0e98:	28a8    	cmp	r0, #168	@ 0xa8
   0x1fff0e9a:	d005    	beq.n	0x1fff0ea8
   0x1fff0e9c:	28aa    	cmp	r0, #170	@ 0xaa
   0x1fff0e9e:	d10c    	bne.n	0x1fff0eba
   0x1fff0ea0:	e002    	b.n	0x1fff0ea8
   0x1fff0ea2:	8ae8    	ldrh	r0, [r5, #22]
   0x1fff0ea4:	ba41    	rev16	r1, r0
   0x1fff0ea6:	e008    	b.n	0x1fff0eba
   0x1fff0ea8:	4620    	mov	r0, r4
   0x1fff0eaa:	3055    	adds	r0, #85	@ 0x55
   0x1fff0eac:	f003 f854	bl	0x1fff3f58
   0x1fff0eb0:	ba00    	rev	r0, r0
   0x1fff0eb2:	0a01    	lsrs	r1, r0, #8
   0x1fff0eb4:	7e28    	ldrb	r0, [r5, #24]
   0x1fff0eb6:	0209    	lsls	r1, r1, #8
   0x1fff0eb8:	4301    	orrs	r1, r0
   0x1fff0eba:	4638    	mov	r0, r7
   0x1fff0ebc:	4348    	muls	r0, r1
   0x1fff0ebe:	6760    	str	r0, [r4, #116]	@ 0x74
   0x1fff0ec0:	4627    	mov	r7, r4
   0x1fff0ec2:	6ca1    	ldr	r1, [r4, #72]	@ 0x48
   0x1fff0ec4:	3760    	adds	r7, #96	@ 0x60
   0x1fff0ec6:	2900    	cmp	r1, #0
   0x1fff0ec8:	d00f    	beq.n	0x1fff0eea
   0x1fff0eca:	4281    	cmp	r1, r0
   0x1fff0ecc:	d104    	bne.n	0x1fff0ed8
   0x1fff0ece:	9900    	ldr	r1, [sp, #0]
   0x1fff0ed0:	1808    	adds	r0, r1, r0
   0x1fff0ed2:	6971    	ldr	r1, [r6, #20]
   0x1fff0ed4:	4288    	cmp	r0, r1
   0x1fff0ed6:	d90f    	bls.n	0x1fff0ef8
   0x1fff0ed8:	7b28    	ldrb	r0, [r5, #12]
   0x1fff0eda:	0600    	lsls	r0, r0, #24
   0x1fff0edc:	d501    	bpl.n	0x1fff0ee2
   0x1fff0ede:	78b1    	ldrb	r1, [r6, #2]
   0x1fff0ee0:	e000    	b.n	0x1fff0ee4
   0x1fff0ee2:	78f1    	ldrb	r1, [r6, #3]
   0x1fff0ee4:	4620    	mov	r0, r4
   0x1fff0ee6:	f7ff fee5	bl	0x1fff0cb4
   0x1fff0eea:	2001    	movs	r0, #1
   0x1fff0eec:	72f8    	strb	r0, [r7, #11]
   0x1fff0eee:	4620    	mov	r0, r4
   0x1fff0ef0:	f7ff ff4b	bl	0x1fff0d8a
   0x1fff0ef4:	48a2    	ldr	r0, [pc, #648]	@ (0x1fff1180)
   0x1fff0ef6:	bdf8    	pop	{r3, r4, r5, r6, r7, pc}
   0x1fff0ef8:	2000    	movs	r0, #0
   0x1fff0efa:	bdf8    	pop	{r3, r4, r5, r6, r7, pc}
   0x1fff0efc:	b5f8    	push	{r3, r4, r5, r6, r7, lr}
   0x1fff0efe:	4604    	mov	r4, r0
   0x1fff0f00:	6c80    	ldr	r0, [r0, #72]	@ 0x48
   0x1fff0f02:	4625    	mov	r5, r4
   0x1fff0f04:	2602    	movs	r6, #2
   0x1fff0f06:	3560    	adds	r5, #96	@ 0x60
   0x1fff0f08:	4f9d    	ldr	r7, [pc, #628]	@ (0x1fff1180)
   0x1fff0f0a:	2800    	cmp	r0, #0
   0x1fff0f0c:	d008    	beq.n	0x1fff0f20
   0x1fff0f0e:	204c    	movs	r0, #76	@ 0x4c
   0x1fff0f10:	5d00    	ldrb	r0, [r0, r4]
   0x1fff0f12:	0600    	lsls	r0, r0, #24
   0x1fff0f14:	d40a    	bmi.n	0x1fff0f2c
   0x1fff0f16:	2083    	movs	r0, #131	@ 0x83
   0x1fff0f18:	5d01    	ldrb	r1, [r0, r4]
   0x1fff0f1a:	4620    	mov	r0, r4
   0x1fff0f1c:	f7ff feca	bl	0x1fff0cb4
   0x1fff0f20:	72ee    	strb	r6, [r5, #11]
   0x1fff0f22:	4620    	mov	r0, r4
   0x1fff0f24:	f7ff ff31	bl	0x1fff0d8a
   0x1fff0f28:	4638    	mov	r0, r7
   0x1fff0f2a:	bdf8    	pop	{r3, r4, r5, r6, r7, pc}
   0x1fff0f2c:	2000    	movs	r0, #0
   0x1fff0f2e:	bdf8    	pop	{r3, r4, r5, r6, r7, pc}
   0x1fff0f30:	b570    	push	{r4, r5, r6, lr}
   0x1fff0f32:	4604    	mov	r4, r0
   0x1fff0f34:	6f82    	ldr	r2, [r0, #120]	@ 0x78
   0x1fff0f36:	6c81    	ldr	r1, [r0, #72]	@ 0x48
   0x1fff0f38:	3080    	adds	r0, #128	@ 0x80
   0x1fff0f3a:	428a    	cmp	r2, r1
   0x1fff0f3c:	d302    	bcc.n	0x1fff0f44
   0x1fff0f3e:	67a1    	str	r1, [r4, #120]	@ 0x78
   0x1fff0f40:	2103    	movs	r1, #3
   0x1fff0f42:	e000    	b.n	0x1fff0f46
   0x1fff0f44:	2104    	movs	r1, #4
   0x1fff0f46:	7001    	strb	r1, [r0, #0]
   0x1fff0f48:	7881    	ldrb	r1, [r0, #2]
   0x1fff0f4a:	4622    	mov	r2, r4
   0x1fff0f4c:	6fa3    	ldr	r3, [r4, #120]	@ 0x78
   0x1fff0f4e:	6ee0    	ldr	r0, [r4, #108]	@ 0x6c
   0x1fff0f50:	f002 fa19	bl	0x1fff3386
   0x1fff0f54:	4620    	mov	r0, r4
   0x1fff0f56:	3067    	adds	r0, #103	@ 0x67
   0x1fff0f58:	4605    	mov	r5, r0
   0x1fff0f5a:	f002 fffd	bl	0x1fff3f58
   0x1fff0f5e:	6fa1    	ldr	r1, [r4, #120]	@ 0x78
   0x1fff0f60:	1a40    	subs	r0, r0, r1
   0x1fff0f62:	4629    	mov	r1, r5
   0x1fff0f64:	f003 f802	bl	0x1fff3f6c
   0x1fff0f68:	2000    	movs	r0, #0
   0x1fff0f6a:	3460    	adds	r4, #96	@ 0x60
   0x1fff0f6c:	72e0    	strb	r0, [r4, #11]
   0x1fff0f6e:	bd70    	pop	{r4, r5, r6, pc}
   0x1fff0f70:	b510    	push	{r4, lr}
   0x1fff0f72:	4604    	mov	r4, r0
   0x1fff0f74:	6c80    	ldr	r0, [r0, #72]	@ 0x48
   0x1fff0f76:	2800    	cmp	r0, #0
   0x1fff0f78:	d00c    	beq.n	0x1fff0f94
   0x1fff0f7a:	204c    	movs	r0, #76	@ 0x4c
   0x1fff0f7c:	5d00    	ldrb	r0, [r0, r4]
   0x1fff0f7e:	0601    	lsls	r1, r0, #24
   0x1fff0f80:	4620    	mov	r0, r4
   0x1fff0f82:	3080    	adds	r0, #128	@ 0x80
   0x1fff0f84:	2900    	cmp	r1, #0
   0x1fff0f86:	da01    	bge.n	0x1fff0f8c
   0x1fff0f88:	7881    	ldrb	r1, [r0, #2]
   0x1fff0f8a:	e000    	b.n	0x1fff0f8e
   0x1fff0f8c:	78c1    	ldrb	r1, [r0, #3]
   0x1fff0f8e:	4620    	mov	r0, r4
   0x1fff0f90:	f7ff fe90	bl	0x1fff0cb4
   0x1fff0f94:	2100    	movs	r1, #0
   0x1fff0f96:	206b    	movs	r0, #107	@ 0x6b
   0x1fff0f98:	5501    	strb	r1, [r0, r4]
   0x1fff0f9a:	4620    	mov	r0, r4
   0x1fff0f9c:	f7ff fef5	bl	0x1fff0d8a
   0x1fff0fa0:	bd10    	pop	{r4, pc}
   0x1fff0fa2:	b510    	push	{r4, lr}
   0x1fff0fa4:	4604    	mov	r4, r0
   0x1fff0fa6:	f7ff ffa9	bl	0x1fff0efc
   0x1fff0faa:	2800    	cmp	r0, #0
   0x1fff0fac:	d112    	bne.n	0x1fff0fd4
   0x1fff0fae:	2112    	movs	r1, #18
   0x1fff0fb0:	4620    	mov	r0, r4
   0x1fff0fb2:	f002 ffb8	bl	0x1fff3f26
   0x1fff0fb6:	2070    	movs	r0, #112	@ 0x70
   0x1fff0fb8:	7020    	strb	r0, [r4, #0]
   0x1fff0fba:	2002    	movs	r0, #2
   0x1fff0fbc:	70a0    	strb	r0, [r4, #2]
   0x1fff0fbe:	200a    	movs	r0, #10
   0x1fff0fc0:	71e0    	strb	r0, [r4, #7]
   0x1fff0fc2:	2030    	movs	r0, #48	@ 0x30
   0x1fff0fc4:	7320    	strb	r0, [r4, #12]
   0x1fff0fc6:	2001    	movs	r0, #1
   0x1fff0fc8:	7360    	strb	r0, [r4, #13]
   0x1fff0fca:	2012    	movs	r0, #18
   0x1fff0fcc:	67a0    	str	r0, [r4, #120]	@ 0x78
   0x1fff0fce:	4620    	mov	r0, r4
   0x1fff0fd0:	f7ff ffae	bl	0x1fff0f30
   0x1fff0fd4:	bd10    	pop	{r4, pc}
   0x1fff0fd6:	b510    	push	{r4, lr}
   0x1fff0fd8:	4604    	mov	r4, r0
   0x1fff0fda:	f7ff ff8f	bl	0x1fff0efc
   0x1fff0fde:	2800    	cmp	r0, #0
   0x1fff0fe0:	d117    	bne.n	0x1fff1012
   0x1fff0fe2:	7020    	strb	r0, [r4, #0]
   0x1fff0fe4:	2180    	movs	r1, #128	@ 0x80
   0x1fff0fe6:	7061    	strb	r1, [r4, #1]
   0x1fff0fe8:	70a0    	strb	r0, [r4, #2]
   0x1fff0fea:	2201    	movs	r2, #1
   0x1fff0fec:	70e2    	strb	r2, [r4, #3]
   0x1fff0fee:	2220    	movs	r2, #32
   0x1fff0ff0:	7122    	strb	r2, [r4, #4]
   0x1fff0ff2:	7161    	strb	r1, [r4, #5]
   0x1fff0ff4:	71a0    	strb	r0, [r4, #6]
   0x1fff0ff6:	71e0    	strb	r0, [r4, #7]
   0x1fff0ff8:	1861    	adds	r1, r4, r1
   0x1fff0ffa:	688a    	ldr	r2, [r1, #8]
   0x1fff0ffc:	1823    	adds	r3, r4, r0
   0x1fff0ffe:	5c12    	ldrb	r2, [r2, r0]
   0x1fff1000:	1c40    	adds	r0, r0, #1
   0x1fff1002:	721a    	strb	r2, [r3, #8]
   0x1fff1004:	281c    	cmp	r0, #28
   0x1fff1006:	d3f8    	bcc.n	0x1fff0ffa
   0x1fff1008:	2024    	movs	r0, #36	@ 0x24
   0x1fff100a:	67a0    	str	r0, [r4, #120]	@ 0x78
   0x1fff100c:	4620    	mov	r0, r4
   0x1fff100e:	f7ff ff8f	bl	0x1fff0f30
   0x1fff1012:	bd10    	pop	{r4, pc}
   0x1fff1014:	b510    	push	{r4, lr}
   0x1fff1016:	4604    	mov	r4, r0
   0x1fff1018:	f7ff ff70	bl	0x1fff0efc
   0x1fff101c:	2800    	cmp	r0, #0
   0x1fff101e:	d10a    	bne.n	0x1fff1036
   0x1fff1020:	2003    	movs	r0, #3
   0x1fff1022:	7020    	strb	r0, [r4, #0]
   0x1fff1024:	2000    	movs	r0, #0
   0x1fff1026:	7060    	strb	r0, [r4, #1]
   0x1fff1028:	70a0    	strb	r0, [r4, #2]
   0x1fff102a:	70e0    	strb	r0, [r4, #3]
   0x1fff102c:	2004    	movs	r0, #4
   0x1fff102e:	67a0    	str	r0, [r4, #120]	@ 0x78
   0x1fff1030:	4620    	mov	r0, r4
   0x1fff1032:	f7ff ff7d	bl	0x1fff0f30
   0x1fff1036:	bd10    	pop	{r4, pc}
   0x1fff1038:	b510    	push	{r4, lr}
   0x1fff103a:	4604    	mov	r4, r0
   0x1fff103c:	f7ff ff5e	bl	0x1fff0efc
   0x1fff1040:	2800    	cmp	r0, #0
   0x1fff1042:	d108    	bne.n	0x1fff1056
   0x1fff1044:	6020    	str	r0, [r4, #0]
   0x1fff1046:	6060    	str	r0, [r4, #4]
   0x1fff1048:	2006    	movs	r0, #6
   0x1fff104a:	7060    	strb	r0, [r4, #1]
   0x1fff104c:	2008    	movs	r0, #8
   0x1fff104e:	67a0    	str	r0, [r4, #120]	@ 0x78
   0x1fff1050:	4620    	mov	r0, r4
   0x1fff1052:	f7ff ff6d	bl	0x1fff0f30
   0x1fff1056:	bd10    	pop	{r4, pc}
   0x1fff1058:	b510    	push	{r4, lr}
   0x1fff105a:	4604    	mov	r4, r0
   0x1fff105c:	f7ff ff4e	bl	0x1fff0efc
   0x1fff1060:	2800    	cmp	r0, #0
   0x1fff1062:	d117    	bne.n	0x1fff1094
   0x1fff1064:	4621    	mov	r1, r4
   0x1fff1066:	3180    	adds	r1, #128	@ 0x80
   0x1fff1068:	68c8    	ldr	r0, [r1, #12]
   0x1fff106a:	1e40    	subs	r0, r0, #1
   0x1fff106c:	0e02    	lsrs	r2, r0, #24
   0x1fff106e:	7022    	strb	r2, [r4, #0]
   0x1fff1070:	0c02    	lsrs	r2, r0, #16
   0x1fff1072:	7062    	strb	r2, [r4, #1]
   0x1fff1074:	0a02    	lsrs	r2, r0, #8
   0x1fff1076:	70a2    	strb	r2, [r4, #2]
   0x1fff1078:	70e0    	strb	r0, [r4, #3]
   0x1fff107a:	6908    	ldr	r0, [r1, #16]
   0x1fff107c:	0e01    	lsrs	r1, r0, #24
   0x1fff107e:	7121    	strb	r1, [r4, #4]
   0x1fff1080:	0c01    	lsrs	r1, r0, #16
   0x1fff1082:	7161    	strb	r1, [r4, #5]
   0x1fff1084:	0a01    	lsrs	r1, r0, #8
   0x1fff1086:	71a1    	strb	r1, [r4, #6]
   0x1fff1088:	71e0    	strb	r0, [r4, #7]
   0x1fff108a:	2008    	movs	r0, #8
   0x1fff108c:	67a0    	str	r0, [r4, #120]	@ 0x78
   0x1fff108e:	4620    	mov	r0, r4
   0x1fff1090:	f7ff ff4e	bl	0x1fff0f30
   0x1fff1094:	bd10    	pop	{r4, pc}
   0x1fff1096:	b510    	push	{r4, lr}
   0x1fff1098:	4604    	mov	r4, r0
   0x1fff109a:	f7ff ff2f	bl	0x1fff0efc
   0x1fff109e:	2800    	cmp	r0, #0
   0x1fff10a0:	d11b    	bne.n	0x1fff10da
   0x1fff10a2:	7020    	strb	r0, [r4, #0]
   0x1fff10a4:	7060    	strb	r0, [r4, #1]
   0x1fff10a6:	70a0    	strb	r0, [r4, #2]
   0x1fff10a8:	2008    	movs	r0, #8
   0x1fff10aa:	4621    	mov	r1, r4
   0x1fff10ac:	70e0    	strb	r0, [r4, #3]
   0x1fff10ae:	3180    	adds	r1, #128	@ 0x80
   0x1fff10b0:	68c8    	ldr	r0, [r1, #12]
   0x1fff10b2:	0e02    	lsrs	r2, r0, #24
   0x1fff10b4:	7122    	strb	r2, [r4, #4]
   0x1fff10b6:	0c02    	lsrs	r2, r0, #16
   0x1fff10b8:	7162    	strb	r2, [r4, #5]
   0x1fff10ba:	0a02    	lsrs	r2, r0, #8
   0x1fff10bc:	71a2    	strb	r2, [r4, #6]
   0x1fff10be:	71e0    	strb	r0, [r4, #7]
   0x1fff10c0:	2002    	movs	r0, #2
   0x1fff10c2:	7220    	strb	r0, [r4, #8]
   0x1fff10c4:	6908    	ldr	r0, [r1, #16]
   0x1fff10c6:	0c01    	lsrs	r1, r0, #16
   0x1fff10c8:	7261    	strb	r1, [r4, #9]
   0x1fff10ca:	0a01    	lsrs	r1, r0, #8
   0x1fff10cc:	72a1    	strb	r1, [r4, #10]
   0x1fff10ce:	72e0    	strb	r0, [r4, #11]
   0x1fff10d0:	200c    	movs	r0, #12
   0x1fff10d2:	67a0    	str	r0, [r4, #120]	@ 0x78
   0x1fff10d4:	4620    	mov	r0, r4
   0x1fff10d6:	f7ff ff2b	bl	0x1fff0f30
   0x1fff10da:	bd10    	pop	{r4, pc}
   0x1fff10dc:	b5f8    	push	{r3, r4, r5, r6, r7, lr}
   0x1fff10de:	4604    	mov	r4, r0
   0x1fff10e0:	2000    	movs	r0, #0
   0x1fff10e2:	1821    	adds	r1, r4, r0
   0x1fff10e4:	5c22    	ldrb	r2, [r4, r0]
   0x1fff10e6:	3140    	adds	r1, #64	@ 0x40
   0x1fff10e8:	1c40    	adds	r0, r0, #1
   0x1fff10ea:	700a    	strb	r2, [r1, #0]
   0x1fff10ec:	281f    	cmp	r0, #31
   0x1fff10ee:	d3f8    	bcc.n	0x1fff10e2
   0x1fff10f0:	4625    	mov	r5, r4
   0x1fff10f2:	6fa0    	ldr	r0, [r4, #120]	@ 0x78
   0x1fff10f4:	3580    	adds	r5, #128	@ 0x80
   0x1fff10f6:	281f    	cmp	r0, #31
   0x1fff10f8:	d172    	bne.n	0x1fff11e0
   0x1fff10fa:	4922    	ldr	r1, [pc, #136]	@ (0x1fff1184)
   0x1fff10fc:	6c20    	ldr	r0, [r4, #64]	@ 0x40
   0x1fff10fe:	4288    	cmp	r0, r1
   0x1fff1100:	d16e    	bne.n	0x1fff11e0
   0x1fff1102:	4621    	mov	r1, r4
   0x1fff1104:	3163    	adds	r1, #99	@ 0x63
   0x1fff1106:	6c60    	ldr	r0, [r4, #68]	@ 0x44
   0x1fff1108:	f002 ff30	bl	0x1fff3f6c
   0x1fff110c:	4621    	mov	r1, r4
   0x1fff110e:	3167    	adds	r1, #103	@ 0x67
   0x1fff1110:	6ca0    	ldr	r0, [r4, #72]	@ 0x48
   0x1fff1112:	f002 ff2b	bl	0x1fff3f6c
   0x1fff1116:	4626    	mov	r6, r4
   0x1fff1118:	3640    	adds	r6, #64	@ 0x40
   0x1fff111a:	7b70    	ldrb	r0, [r6, #13]
   0x1fff111c:	4627    	mov	r7, r4
   0x1fff111e:	3760    	adds	r7, #96	@ 0x60
   0x1fff1120:	2800    	cmp	r0, #0
   0x1fff1122:	d104    	bne.n	0x1fff112e
   0x1fff1124:	7bb0    	ldrb	r0, [r6, #14]
   0x1fff1126:	2800    	cmp	r0, #0
   0x1fff1128:	d001    	beq.n	0x1fff112e
   0x1fff112a:	2810    	cmp	r0, #16
   0x1fff112c:	d901    	bls.n	0x1fff1132
   0x1fff112e:	2001    	movs	r0, #1
   0x1fff1130:	e06e    	b.n	0x1fff1210
   0x1fff1132:	7bf0    	ldrb	r0, [r6, #15]
   0x1fff1134:	2828    	cmp	r0, #40	@ 0x28
   0x1fff1136:	d058    	beq.n	0x1fff11ea
   0x1fff1138:	dc14    	bgt.n	0x1fff1164
   0x1fff113a:	281a    	cmp	r0, #26
   0x1fff113c:	d048    	beq.n	0x1fff11d0
   0x1fff113e:	dc09    	bgt.n	0x1fff1154
   0x1fff1140:	2800    	cmp	r0, #0
   0x1fff1142:	d03d    	beq.n	0x1fff11c0
   0x1fff1144:	2803    	cmp	r0, #3
   0x1fff1146:	d03f    	beq.n	0x1fff11c8
   0x1fff1148:	2812    	cmp	r0, #18
   0x1fff114a:	d1f0    	bne.n	0x1fff112e
   0x1fff114c:	4620    	mov	r0, r4
   0x1fff114e:	f7ff ff42	bl	0x1fff0fd6
   0x1fff1152:	bdf8    	pop	{r3, r4, r5, r6, r7, pc}
   0x1fff1154:	2823    	cmp	r0, #35	@ 0x23
   0x1fff1156:	d044    	beq.n	0x1fff11e2
   0x1fff1158:	2825    	cmp	r0, #37	@ 0x25
   0x1fff115a:	d1e8    	bne.n	0x1fff112e
   0x1fff115c:	4620    	mov	r0, r4
   0x1fff115e:	f7ff ff7b	bl	0x1fff1058
   0x1fff1162:	bdf8    	pop	{r3, r4, r5, r6, r7, pc}
   0x1fff1164:	285a    	cmp	r0, #90	@ 0x5a
   0x1fff1166:	d037    	beq.n	0x1fff11d8
   0x1fff1168:	dc0e    	bgt.n	0x1fff1188
   0x1fff116a:	282a    	cmp	r0, #42	@ 0x2a
   0x1fff116c:	d010    	beq.n	0x1fff1190
   0x1fff116e:	282f    	cmp	r0, #47	@ 0x2f
   0x1fff1170:	d1dd    	bne.n	0x1fff112e
   0x1fff1172:	7c30    	ldrb	r0, [r6, #16]
   0x1fff1174:	0780    	lsls	r0, r0, #30
   0x1fff1176:	d450    	bmi.n	0x1fff121a
   0x1fff1178:	2000    	movs	r0, #0
   0x1fff117a:	e049    	b.n	0x1fff1210
   0x1fff117c:	5355    	strh	r5, [r2, r5]
   0x1fff117e:	5342    	strh	r2, [r0, r5]
   0x1fff1180:	0001    	movs	r1, r0
   0x1fff1182:	0004    	movs	r4, r0
   0x1fff1184:	5355    	strh	r5, [r2, r5]
   0x1fff1186:	4342    	muls	r2, r0
   0x1fff1188:	28a8    	cmp	r0, #168	@ 0xa8
   0x1fff118a:	d02e    	beq.n	0x1fff11ea
   0x1fff118c:	28aa    	cmp	r0, #170	@ 0xaa
   0x1fff118e:	d1ce    	bne.n	0x1fff112e
   0x1fff1190:	4620    	mov	r0, r4
   0x1fff1192:	f7ff fe65	bl	0x1fff0e60
   0x1fff1196:	2800    	cmp	r0, #0
   0x1fff1198:	d1e3    	bne.n	0x1fff1162
   0x1fff119a:	7b30    	ldrb	r0, [r6, #12]
   0x1fff119c:	0600    	lsls	r0, r0, #24
   0x1fff119e:	d448    	bmi.n	0x1fff1232
   0x1fff11a0:	2001    	movs	r0, #1
   0x1fff11a2:	7028    	strb	r0, [r5, #0]
   0x1fff11a4:	67e4    	str	r4, [r4, #124]	@ 0x7c
   0x1fff11a6:	6a6b    	ldr	r3, [r5, #36]	@ 0x24
   0x1fff11a8:	2b00    	cmp	r3, #0
   0x1fff11aa:	d004    	beq.n	0x1fff11b6
   0x1fff11ac:	4621    	mov	r1, r4
   0x1fff11ae:	317c    	adds	r1, #124	@ 0x7c
   0x1fff11b0:	6fa2    	ldr	r2, [r4, #120]	@ 0x78
   0x1fff11b2:	6f20    	ldr	r0, [r4, #112]	@ 0x70
   0x1fff11b4:	4798    	blx	r3
   0x1fff11b6:	4620    	mov	r0, r4
   0x1fff11b8:	6fe1    	ldr	r1, [r4, #124]	@ 0x7c
   0x1fff11ba:	f7ff fda8	bl	0x1fff0d0e
   0x1fff11be:	bdf8    	pop	{r3, r4, r5, r6, r7, pc}
   0x1fff11c0:	4620    	mov	r0, r4
   0x1fff11c2:	f7ff fed5	bl	0x1fff0f70
   0x1fff11c6:	bdf8    	pop	{r3, r4, r5, r6, r7, pc}
   0x1fff11c8:	4620    	mov	r0, r4
   0x1fff11ca:	f7ff feea	bl	0x1fff0fa2
   0x1fff11ce:	bdf8    	pop	{r3, r4, r5, r6, r7, pc}
   0x1fff11d0:	4620    	mov	r0, r4
   0x1fff11d2:	f7ff ff1f	bl	0x1fff1014
   0x1fff11d6:	bdf8    	pop	{r3, r4, r5, r6, r7, pc}
   0x1fff11d8:	4620    	mov	r0, r4
   0x1fff11da:	f7ff ff2d	bl	0x1fff1038
   0x1fff11de:	bdf8    	pop	{r3, r4, r5, r6, r7, pc}
   0x1fff11e0:	e029    	b.n	0x1fff1236
   0x1fff11e2:	4620    	mov	r0, r4
   0x1fff11e4:	f7ff ff57	bl	0x1fff1096
   0x1fff11e8:	e7f9    	b.n	0x1fff11de
   0x1fff11ea:	4620    	mov	r0, r4
   0x1fff11ec:	f7ff fe38	bl	0x1fff0e60
   0x1fff11f0:	2800    	cmp	r0, #0
   0x1fff11f2:	d1f4    	bne.n	0x1fff11de
   0x1fff11f4:	7b30    	ldrb	r0, [r6, #12]
   0x1fff11f6:	0600    	lsls	r0, r0, #24
   0x1fff11f8:	d505    	bpl.n	0x1fff1206
   0x1fff11fa:	2002    	movs	r0, #2
   0x1fff11fc:	7028    	strb	r0, [r5, #0]
   0x1fff11fe:	4620    	mov	r0, r4
   0x1fff1200:	f7ff fd91	bl	0x1fff0d26
   0x1fff1204:	e7eb    	b.n	0x1fff11de
   0x1fff1206:	78e9    	ldrb	r1, [r5, #3]
   0x1fff1208:	4620    	mov	r0, r4
   0x1fff120a:	f7ff fd53	bl	0x1fff0cb4
   0x1fff120e:	2002    	movs	r0, #2
   0x1fff1210:	72f8    	strb	r0, [r7, #11]
   0x1fff1212:	4620    	mov	r0, r4
   0x1fff1214:	f7ff fdb9	bl	0x1fff0d8a
   0x1fff1218:	e7e1    	b.n	0x1fff11de
   0x1fff121a:	4620    	mov	r0, r4
   0x1fff121c:	f7ff fe20	bl	0x1fff0e60
   0x1fff1220:	2800    	cmp	r0, #0
   0x1fff1222:	d1dc    	bne.n	0x1fff11de
   0x1fff1224:	7b30    	ldrb	r0, [r6, #12]
   0x1fff1226:	0600    	lsls	r0, r0, #24
   0x1fff1228:	d403    	bmi.n	0x1fff1232
   0x1fff122a:	2001    	movs	r0, #1
   0x1fff122c:	7028    	strb	r0, [r5, #0]
   0x1fff122e:	6068    	str	r0, [r5, #4]
   0x1fff1230:	e7d5    	b.n	0x1fff11de
   0x1fff1232:	78a9    	ldrb	r1, [r5, #2]
   0x1fff1234:	e7e8    	b.n	0x1fff1208
   0x1fff1236:	78a9    	ldrb	r1, [r5, #2]
   0x1fff1238:	4620    	mov	r0, r4
   0x1fff123a:	f7ff fd3b	bl	0x1fff0cb4
   0x1fff123e:	6ee0    	ldr	r0, [r4, #108]	@ 0x6c
   0x1fff1240:	78aa    	ldrb	r2, [r5, #2]
   0x1fff1242:	30ff    	adds	r0, #255	@ 0xff
   0x1fff1244:	3001    	adds	r0, #1
   0x1fff1246:	0712    	lsls	r2, r2, #28
   0x1fff1248:	0f12    	lsrs	r2, r2, #28
   0x1fff124a:	2601    	movs	r6, #1
   0x1fff124c:	3210    	adds	r2, #16
   0x1fff124e:	4633    	mov	r3, r6
   0x1fff1250:	68c1    	ldr	r1, [r0, #12]
   0x1fff1252:	4093    	lsls	r3, r2
   0x1fff1254:	4319    	orrs	r1, r3
   0x1fff1256:	60c1    	str	r1, [r0, #12]
   0x1fff1258:	78e9    	ldrb	r1, [r5, #3]
   0x1fff125a:	4620    	mov	r0, r4
   0x1fff125c:	f7ff fd2a	bl	0x1fff0cb4
   0x1fff1260:	6ee0    	ldr	r0, [r4, #108]	@ 0x6c
   0x1fff1262:	78ea    	ldrb	r2, [r5, #3]
   0x1fff1264:	30ff    	adds	r0, #255	@ 0xff
   0x1fff1266:	3001    	adds	r0, #1
   0x1fff1268:	68c1    	ldr	r1, [r0, #12]
   0x1fff126a:	4096    	lsls	r6, r2
   0x1fff126c:	4331    	orrs	r1, r6
   0x1fff126e:	60c1    	str	r1, [r0, #12]
   0x1fff1270:	2006    	movs	r0, #6
   0x1fff1272:	7028    	strb	r0, [r5, #0]
   0x1fff1274:	e7b3    	b.n	0x1fff11de
   0x1fff1276:	b510    	push	{r4, lr}
   0x1fff1278:	4601    	mov	r1, r0
   0x1fff127a:	4604    	mov	r4, r0
   0x1fff127c:	3180    	adds	r1, #128	@ 0x80
   0x1fff127e:	7808    	ldrb	r0, [r1, #0]
   0x1fff1280:	2802    	cmp	r0, #2
   0x1fff1282:	d008    	beq.n	0x1fff1296
   0x1fff1284:	2803    	cmp	r0, #3
   0x1fff1286:	d010    	beq.n	0x1fff12aa
   0x1fff1288:	2804    	cmp	r0, #4
   0x1fff128a:	d012    	beq.n	0x1fff12b2
   0x1fff128c:	2805    	cmp	r0, #5
   0x1fff128e:	d101    	bne.n	0x1fff1294
   0x1fff1290:	2000    	movs	r0, #0
   0x1fff1292:	7008    	strb	r0, [r1, #0]
   0x1fff1294:	bd10    	pop	{r4, pc}
   0x1fff1296:	204f    	movs	r0, #79	@ 0x4f
   0x1fff1298:	5d00    	ldrb	r0, [r0, r4]
   0x1fff129a:	2828    	cmp	r0, #40	@ 0x28
   0x1fff129c:	d001    	beq.n	0x1fff12a2
   0x1fff129e:	28a8    	cmp	r0, #168	@ 0xa8
   0x1fff12a0:	d1f8    	bne.n	0x1fff1294
   0x1fff12a2:	4620    	mov	r0, r4
   0x1fff12a4:	f7ff fd3f	bl	0x1fff0d26
   0x1fff12a8:	bd10    	pop	{r4, pc}
   0x1fff12aa:	4620    	mov	r0, r4
   0x1fff12ac:	f7ff fd6d	bl	0x1fff0d8a
   0x1fff12b0:	bd10    	pop	{r4, pc}
   0x1fff12b2:	7889    	ldrb	r1, [r1, #2]
   0x1fff12b4:	4620    	mov	r0, r4
   0x1fff12b6:	f7ff fcfd	bl	0x1fff0cb4
   0x1fff12ba:	e7f6    	b.n	0x1fff12aa
   0x1fff12bc:	b570    	push	{r4, r5, r6, lr}
   0x1fff12be:	4605    	mov	r5, r0
   0x1fff12c0:	4604    	mov	r4, r0
   0x1fff12c2:	3580    	adds	r5, #128	@ 0x80
   0x1fff12c4:	6fc2    	ldr	r2, [r0, #124]	@ 0x7c
   0x1fff12c6:	78e9    	ldrb	r1, [r5, #3]
   0x1fff12c8:	6ec0    	ldr	r0, [r0, #108]	@ 0x6c
   0x1fff12ca:	f001 ffd4	bl	0x1fff3276
   0x1fff12ce:	67a0    	str	r0, [r4, #120]	@ 0x78
   0x1fff12d0:	7828    	ldrb	r0, [r5, #0]
   0x1fff12d2:	2800    	cmp	r0, #0
   0x1fff12d4:	d00e    	beq.n	0x1fff12f4
   0x1fff12d6:	2801    	cmp	r0, #1
   0x1fff12d8:	d010    	beq.n	0x1fff12fc
   0x1fff12da:	2805    	cmp	r0, #5
   0x1fff12dc:	d009    	beq.n	0x1fff12f2
   0x1fff12de:	78e9    	ldrb	r1, [r5, #3]
   0x1fff12e0:	4620    	mov	r0, r4
   0x1fff12e2:	f7ff fce7	bl	0x1fff0cb4
   0x1fff12e6:	2102    	movs	r1, #2
   0x1fff12e8:	206b    	movs	r0, #107	@ 0x6b
   0x1fff12ea:	5501    	strb	r1, [r0, r4]
   0x1fff12ec:	4620    	mov	r0, r4
   0x1fff12ee:	f7ff fd4c	bl	0x1fff0d8a
   0x1fff12f2:	bd70    	pop	{r4, r5, r6, pc}
   0x1fff12f4:	4620    	mov	r0, r4
   0x1fff12f6:	f7ff fef1	bl	0x1fff10dc
   0x1fff12fa:	bd70    	pop	{r4, r5, r6, pc}
   0x1fff12fc:	204f    	movs	r0, #79	@ 0x4f
   0x1fff12fe:	5d00    	ldrb	r0, [r0, r4]
   0x1fff1300:	282a    	cmp	r0, #42	@ 0x2a
   0x1fff1302:	d003    	beq.n	0x1fff130c
   0x1fff1304:	282f    	cmp	r0, #47	@ 0x2f
   0x1fff1306:	d005    	beq.n	0x1fff1314
   0x1fff1308:	28aa    	cmp	r0, #170	@ 0xaa
   0x1fff130a:	d1f6    	bne.n	0x1fff12fa
   0x1fff130c:	4620    	mov	r0, r4
   0x1fff130e:	f7ff fd4f	bl	0x1fff0db0
   0x1fff1312:	bd70    	pop	{r4, r5, r6, pc}
   0x1fff1314:	4620    	mov	r0, r4
   0x1fff1316:	f7ff fd76	bl	0x1fff0e06
   0x1fff131a:	bd70    	pop	{r4, r5, r6, pc}
   0x1fff131c:	b5fe    	push	{r1, r2, r3, r4, r5, r6, r7, lr}
   0x1fff131e:	4605    	mov	r5, r0
   0x1fff1320:	4897    	ldr	r0, [pc, #604]	@ (0x1fff1580)
   0x1fff1322:	9001    	str	r0, [sp, #4]
   0x1fff1324:	4628    	mov	r0, r5
   0x1fff1326:	30ff    	adds	r0, #255	@ 0xff
   0x1fff1328:	460c    	mov	r4, r1
   0x1fff132a:	3061    	adds	r0, #97	@ 0x61
   0x1fff132c:	7a03    	ldrb	r3, [r0, #8]
   0x1fff132e:	3180    	adds	r1, #128	@ 0x80
   0x1fff1330:	9100    	str	r1, [sp, #0]
   0x1fff1332:	7849    	ldrb	r1, [r1, #1]
   0x1fff1334:	428b    	cmp	r3, r1
   0x1fff1336:	d17a    	bne.n	0x1fff142e
   0x1fff1338:	2a01    	cmp	r2, #1
   0x1fff133a:	d178    	bne.n	0x1fff142e
   0x1fff133c:	7901    	ldrb	r1, [r0, #4]
   0x1fff133e:	1dee    	adds	r6, r5, #7
   0x1fff1340:	064a    	lsls	r2, r1, #25
   0x1fff1342:	0f92    	lsrs	r2, r2, #30
   0x1fff1344:	36f9    	adds	r6, #249	@ 0xf9
   0x1fff1346:	2a01    	cmp	r2, #1
   0x1fff1348:	d103    	bne.n	0x1fff1352
   0x1fff134a:	06ca    	lsls	r2, r1, #27
   0x1fff134c:	0ed2    	lsrs	r2, r2, #27
   0x1fff134e:	2a01    	cmp	r2, #1
   0x1fff1350:	d003    	beq.n	0x1fff135a
   0x1fff1352:	7942    	ldrb	r2, [r0, #5]
   0x1fff1354:	2a01    	cmp	r2, #1
   0x1fff1356:	d027    	beq.n	0x1fff13a8
   0x1fff1358:	e069    	b.n	0x1fff142e
   0x1fff135a:	7941    	ldrb	r1, [r0, #5]
   0x1fff135c:	29fe    	cmp	r1, #254	@ 0xfe
   0x1fff135e:	d010    	beq.n	0x1fff1382
   0x1fff1360:	29ff    	cmp	r1, #255	@ 0xff
   0x1fff1362:	d164    	bne.n	0x1fff142e
   0x1fff1364:	88c1    	ldrh	r1, [r0, #6]
   0x1fff1366:	2900    	cmp	r1, #0
   0x1fff1368:	d161    	bne.n	0x1fff142e
   0x1fff136a:	8940    	ldrh	r0, [r0, #10]
   0x1fff136c:	2800    	cmp	r0, #0
   0x1fff136e:	d15e    	bne.n	0x1fff142e
   0x1fff1370:	4620    	mov	r0, r4
   0x1fff1372:	f7ff fcb5	bl	0x1fff0ce0
   0x1fff1376:	2800    	cmp	r0, #0
   0x1fff1378:	d159    	bne.n	0x1fff142e
   0x1fff137a:	4628    	mov	r0, r5
   0x1fff137c:	f000 ff86	bl	0x1fff228c
   0x1fff1380:	e053    	b.n	0x1fff142a
   0x1fff1382:	88c1    	ldrh	r1, [r0, #6]
   0x1fff1384:	2900    	cmp	r1, #0
   0x1fff1386:	d152    	bne.n	0x1fff142e
   0x1fff1388:	8940    	ldrh	r0, [r0, #10]
   0x1fff138a:	2801    	cmp	r0, #1
   0x1fff138c:	d14f    	bne.n	0x1fff142e
   0x1fff138e:	4620    	mov	r0, r4
   0x1fff1390:	f7ff fcb6	bl	0x1fff0d00
   0x1fff1394:	2800    	cmp	r0, #0
   0x1fff1396:	d14a    	bne.n	0x1fff142e
   0x1fff1398:	4628    	mov	r0, r5
   0x1fff139a:	30ff    	adds	r0, #255	@ 0xff
   0x1fff139c:	3025    	adds	r0, #37	@ 0x25
   0x1fff139e:	61f0    	str	r0, [r6, #28]
   0x1fff13a0:	4628    	mov	r0, r5
   0x1fff13a2:	f000 ff4c	bl	0x1fff223e
   0x1fff13a6:	e040    	b.n	0x1fff142a
   0x1fff13a8:	06c9    	lsls	r1, r1, #27
   0x1fff13aa:	0ec9    	lsrs	r1, r1, #27
   0x1fff13ac:	2902    	cmp	r1, #2
   0x1fff13ae:	d13e    	bne.n	0x1fff142e
   0x1fff13b0:	88c0    	ldrh	r0, [r0, #6]
   0x1fff13b2:	2800    	cmp	r0, #0
   0x1fff13b4:	d13b    	bne.n	0x1fff142e
   0x1fff13b6:	4619    	mov	r1, r3
   0x1fff13b8:	208f    	movs	r0, #143	@ 0x8f
   0x1fff13ba:	4001    	ands	r1, r0
   0x1fff13bc:	2701    	movs	r7, #1
   0x1fff13be:	408f    	lsls	r7, r1
   0x1fff13c0:	0608    	lsls	r0, r1, #24
   0x1fff13c2:	d504    	bpl.n	0x1fff13ce
   0x1fff13c4:	0708    	lsls	r0, r1, #28
   0x1fff13c6:	0f00    	lsrs	r0, r0, #28
   0x1fff13c8:	2701    	movs	r7, #1
   0x1fff13ca:	043f    	lsls	r7, r7, #16
   0x1fff13cc:	4087    	lsls	r7, r0
   0x1fff13ce:	20ed    	movs	r0, #237	@ 0xed
   0x1fff13d0:	5d40    	ldrb	r0, [r0, r5]
   0x1fff13d2:	2800    	cmp	r0, #0
   0x1fff13d4:	d02b    	beq.n	0x1fff142e
   0x1fff13d6:	6870    	ldr	r0, [r6, #4]
   0x1fff13d8:	4238    	tst	r0, r7
   0x1fff13da:	d028    	beq.n	0x1fff142e
   0x1fff13dc:	9800    	ldr	r0, [sp, #0]
   0x1fff13de:	7880    	ldrb	r0, [r0, #2]
   0x1fff13e0:	4288    	cmp	r0, r1
   0x1fff13e2:	d124    	bne.n	0x1fff142e
   0x1fff13e4:	68b0    	ldr	r0, [r6, #8]
   0x1fff13e6:	4238    	tst	r0, r7
   0x1fff13e8:	d021    	beq.n	0x1fff142e
   0x1fff13ea:	68f0    	ldr	r0, [r6, #12]
   0x1fff13ec:	4238    	tst	r0, r7
   0x1fff13ee:	d114    	bne.n	0x1fff141a
   0x1fff13f0:	6ee0    	ldr	r0, [r4, #108]	@ 0x6c
   0x1fff13f2:	f001 fe65	bl	0x1fff30c0
   0x1fff13f6:	4620    	mov	r0, r4
   0x1fff13f8:	305f    	adds	r0, #95	@ 0x5f
   0x1fff13fa:	9001    	str	r0, [sp, #4]
   0x1fff13fc:	f002 fdac	bl	0x1fff3f58
   0x1fff1400:	4960    	ldr	r1, [pc, #384]	@ (0x1fff1584)
   0x1fff1402:	4288    	cmp	r0, r1
   0x1fff1404:	d106    	bne.n	0x1fff1414
   0x1fff1406:	9800    	ldr	r0, [sp, #0]
   0x1fff1408:	230d    	movs	r3, #13
   0x1fff140a:	7881    	ldrb	r1, [r0, #2]
   0x1fff140c:	6ee0    	ldr	r0, [r4, #108]	@ 0x6c
   0x1fff140e:	9a01    	ldr	r2, [sp, #4]
   0x1fff1410:	f001 ffb9	bl	0x1fff3386
   0x1fff1414:	68b0    	ldr	r0, [r6, #8]
   0x1fff1416:	43b8    	bics	r0, r7
   0x1fff1418:	60b0    	str	r0, [r6, #8]
   0x1fff141a:	6ee0    	ldr	r0, [r4, #108]	@ 0x6c
   0x1fff141c:	f000 ff36	bl	0x1fff228c
   0x1fff1420:	6ce9    	ldr	r1, [r5, #76]	@ 0x4c
   0x1fff1422:	2900    	cmp	r1, #0
   0x1fff1424:	d001    	beq.n	0x1fff142a
   0x1fff1426:	4628    	mov	r0, r5
   0x1fff1428:	4788    	blx	r1
   0x1fff142a:	2000    	movs	r0, #0
   0x1fff142c:	bdfe    	pop	{r1, r2, r3, r4, r5, r6, r7, pc}
   0x1fff142e:	9801    	ldr	r0, [sp, #4]
   0x1fff1430:	bdfe    	pop	{r1, r2, r3, r4, r5, r6, r7, pc}
   0x1fff1432:	b510    	push	{r4, lr}
   0x1fff1434:	4608    	mov	r0, r1
   0x1fff1436:	2a03    	cmp	r2, #3
   0x1fff1438:	d101    	bne.n	0x1fff143e
   0x1fff143a:	f7ff ff1c	bl	0x1fff1276
   0x1fff143e:	2000    	movs	r0, #0
   0x1fff1440:	bd10    	pop	{r4, pc}
   0x1fff1442:	b510    	push	{r4, lr}
   0x1fff1444:	4608    	mov	r0, r1
   0x1fff1446:	2a02    	cmp	r2, #2
   0x1fff1448:	d004    	beq.n	0x1fff1454
   0x1fff144a:	2a04    	cmp	r2, #4
   0x1fff144c:	d104    	bne.n	0x1fff1458
   0x1fff144e:	f7ff fc5e	bl	0x1fff0d0e
   0x1fff1452:	e001    	b.n	0x1fff1458
   0x1fff1454:	f7ff ff32	bl	0x1fff12bc
   0x1fff1458:	2000    	movs	r0, #0
   0x1fff145a:	bd10    	pop	{r4, pc}
   0x1fff145c:	20ac    	movs	r0, #172	@ 0xac
   0x1fff145e:	4770    	bx	lr
   0x1fff1460:	b5f3    	push	{r0, r1, r4, r5, r6, r7, lr}
   0x1fff1462:	b083    	sub	sp, #12
   0x1fff1464:	2000    	movs	r0, #0
   0x1fff1466:	9001    	str	r0, [sp, #4]
   0x1fff1468:	460c    	mov	r4, r1
   0x1fff146a:	698e    	ldr	r6, [r1, #24]
   0x1fff146c:	6808    	ldr	r0, [r1, #0]
   0x1fff146e:	6849    	ldr	r1, [r1, #4]
   0x1fff1470:	0782    	lsls	r2, r0, #30
   0x1fff1472:	d005    	beq.n	0x1fff1480
   0x1fff1474:	29a8    	cmp	r1, #168	@ 0xa8
   0x1fff1476:	d203    	bcs.n	0x1fff1480
   0x1fff1478:	4841    	ldr	r0, [pc, #260]	@ (0x1fff1580)
   0x1fff147a:	3008    	adds	r0, #8
   0x1fff147c:	b005    	add	sp, #20
   0x1fff147e:	bdf0    	pop	{r4, r5, r6, r7, pc}
   0x1fff1480:	9000    	str	r0, [sp, #0]
   0x1fff1482:	30a8    	adds	r0, #168	@ 0xa8
   0x1fff1484:	39a8    	subs	r1, #168	@ 0xa8
   0x1fff1486:	6061    	str	r1, [r4, #4]
   0x1fff1488:	6020    	str	r0, [r4, #0]
   0x1fff148a:	e004    	b.n	0x1fff1496
   0x1fff148c:	1c40    	adds	r0, r0, #1
   0x1fff148e:	6020    	str	r0, [r4, #0]
   0x1fff1490:	6860    	ldr	r0, [r4, #4]
   0x1fff1492:	1e40    	subs	r0, r0, #1
   0x1fff1494:	6060    	str	r0, [r4, #4]
   0x1fff1496:	6820    	ldr	r0, [r4, #0]
   0x1fff1498:	0781    	lsls	r1, r0, #30
   0x1fff149a:	d1f7    	bne.n	0x1fff148c
   0x1fff149c:	21a8    	movs	r1, #168	@ 0xa8
   0x1fff149e:	9800    	ldr	r0, [sp, #0]
   0x1fff14a0:	f002 fd41	bl	0x1fff3f26
   0x1fff14a4:	9900    	ldr	r1, [sp, #0]
   0x1fff14a6:	9803    	ldr	r0, [sp, #12]
   0x1fff14a8:	66c8    	str	r0, [r1, #108]	@ 0x6c
   0x1fff14aa:	9d00    	ldr	r5, [sp, #0]
   0x1fff14ac:	68a0    	ldr	r0, [r4, #8]
   0x1fff14ae:	3580    	adds	r5, #128	@ 0x80
   0x1fff14b0:	60a8    	str	r0, [r5, #8]
   0x1fff14b2:	68e0    	ldr	r0, [r4, #12]
   0x1fff14b4:	60e8    	str	r0, [r5, #12]
   0x1fff14b6:	6920    	ldr	r0, [r4, #16]
   0x1fff14b8:	6128    	str	r0, [r5, #16]
   0x1fff14ba:	6960    	ldr	r0, [r4, #20]
   0x1fff14bc:	6168    	str	r0, [r5, #20]
   0x1fff14be:	69e0    	ldr	r0, [r4, #28]
   0x1fff14c0:	2800    	cmp	r0, #0
   0x1fff14c2:	d012    	beq.n	0x1fff14ea
   0x1fff14c4:	6a21    	ldr	r1, [r4, #32]
   0x1fff14c6:	2900    	cmp	r1, #0
   0x1fff14c8:	d00f    	beq.n	0x1fff14ea
   0x1fff14ca:	6a61    	ldr	r1, [r4, #36]	@ 0x24
   0x1fff14cc:	2900    	cmp	r1, #0
   0x1fff14ce:	d00c    	beq.n	0x1fff14ea
   0x1fff14d0:	61a8    	str	r0, [r5, #24]
   0x1fff14d2:	6a20    	ldr	r0, [r4, #32]
   0x1fff14d4:	61e8    	str	r0, [r5, #28]
   0x1fff14d6:	6a60    	ldr	r0, [r4, #36]	@ 0x24
   0x1fff14d8:	6228    	str	r0, [r5, #32]
   0x1fff14da:	6aa0    	ldr	r0, [r4, #40]	@ 0x28
   0x1fff14dc:	6268    	str	r0, [r5, #36]	@ 0x24
   0x1fff14de:	9800    	ldr	r0, [sp, #0]
   0x1fff14e0:	67c0    	str	r0, [r0, #124]	@ 0x7c
   0x1fff14e2:	7870    	ldrb	r0, [r6, #1]
   0x1fff14e4:	2804    	cmp	r0, #4
   0x1fff14e6:	d002    	beq.n	0x1fff14ee
   0x1fff14e8:	e03e    	b.n	0x1fff1568
   0x1fff14ea:	4827    	ldr	r0, [pc, #156]	@ (0x1fff1588)
   0x1fff14ec:	e7c6    	b.n	0x1fff147c
   0x1fff14ee:	7970    	ldrb	r0, [r6, #5]
   0x1fff14f0:	2808    	cmp	r0, #8
   0x1fff14f2:	d139    	bne.n	0x1fff1568
   0x1fff14f4:	79b0    	ldrb	r0, [r6, #6]
   0x1fff14f6:	2806    	cmp	r0, #6
   0x1fff14f8:	d136    	bne.n	0x1fff1568
   0x1fff14fa:	7930    	ldrb	r0, [r6, #4]
   0x1fff14fc:	2802    	cmp	r0, #2
   0x1fff14fe:	d333    	bcc.n	0x1fff1568
   0x1fff1500:	78b0    	ldrb	r0, [r6, #2]
   0x1fff1502:	7068    	strb	r0, [r5, #1]
   0x1fff1504:	7830    	ldrb	r0, [r6, #0]
   0x1fff1506:	1980    	adds	r0, r0, r6
   0x1fff1508:	2700    	movs	r7, #0
   0x1fff150a:	9002    	str	r0, [sp, #8]
   0x1fff150c:	e01d    	b.n	0x1fff154a
   0x1fff150e:	9802    	ldr	r0, [sp, #8]
   0x1fff1510:	7801    	ldrb	r1, [r0, #0]
   0x1fff1512:	1809    	adds	r1, r1, r0
   0x1fff1514:	9102    	str	r1, [sp, #8]
   0x1fff1516:	7841    	ldrb	r1, [r0, #1]
   0x1fff1518:	2905    	cmp	r1, #5
   0x1fff151a:	d115    	bne.n	0x1fff1548
   0x1fff151c:	78c1    	ldrb	r1, [r0, #3]
   0x1fff151e:	2902    	cmp	r1, #2
   0x1fff1520:	d112    	bne.n	0x1fff1548
   0x1fff1522:	7880    	ldrb	r0, [r0, #2]
   0x1fff1524:	0601    	lsls	r1, r0, #24
   0x1fff1526:	d506    	bpl.n	0x1fff1536
   0x1fff1528:	70a8    	strb	r0, [r5, #2]
   0x1fff152a:	0700    	lsls	r0, r0, #28
   0x1fff152c:	0ec1    	lsrs	r1, r0, #27
   0x1fff152e:	1c49    	adds	r1, r1, #1
   0x1fff1530:	4a16    	ldr	r2, [pc, #88]	@ (0x1fff158c)
   0x1fff1532:	9b00    	ldr	r3, [sp, #0]
   0x1fff1534:	e004    	b.n	0x1fff1540
   0x1fff1536:	70e8    	strb	r0, [r5, #3]
   0x1fff1538:	0700    	lsls	r0, r0, #28
   0x1fff153a:	4a15    	ldr	r2, [pc, #84]	@ (0x1fff1590)
   0x1fff153c:	9b00    	ldr	r3, [sp, #0]
   0x1fff153e:	0ec1    	lsrs	r1, r0, #27
   0x1fff1540:	9803    	ldr	r0, [sp, #12]
   0x1fff1542:	f001 fa48	bl	0x1fff29d6
   0x1fff1546:	9001    	str	r0, [sp, #4]
   0x1fff1548:	1c7f    	adds	r7, r7, #1
   0x1fff154a:	7930    	ldrb	r0, [r6, #4]
   0x1fff154c:	42b8    	cmp	r0, r7
   0x1fff154e:	d8de    	bhi.n	0x1fff150e
   0x1fff1550:	78a8    	ldrb	r0, [r5, #2]
   0x1fff1552:	2800    	cmp	r0, #0
   0x1fff1554:	d005    	beq.n	0x1fff1562
   0x1fff1556:	78e8    	ldrb	r0, [r5, #3]
   0x1fff1558:	2800    	cmp	r0, #0
   0x1fff155a:	d002    	beq.n	0x1fff1562
   0x1fff155c:	9801    	ldr	r0, [sp, #4]
   0x1fff155e:	2800    	cmp	r0, #0
   0x1fff1560:	d005    	beq.n	0x1fff156e
   0x1fff1562:	4807    	ldr	r0, [pc, #28]	@ (0x1fff1580)
   0x1fff1564:	1dc0    	adds	r0, r0, #7
   0x1fff1566:	e789    	b.n	0x1fff147c
   0x1fff1568:	4805    	ldr	r0, [pc, #20]	@ (0x1fff1580)
   0x1fff156a:	1d80    	adds	r0, r0, #6
   0x1fff156c:	e786    	b.n	0x1fff147c
   0x1fff156e:	6ae1    	ldr	r1, [r4, #44]	@ 0x2c
   0x1fff1570:	9a00    	ldr	r2, [sp, #0]
   0x1fff1572:	2900    	cmp	r1, #0
   0x1fff1574:	d100    	bne.n	0x1fff1578
   0x1fff1576:	4907    	ldr	r1, [pc, #28]	@ (0x1fff1594)
   0x1fff1578:	9803    	ldr	r0, [sp, #12]
   0x1fff157a:	f001 fa9c	bl	0x1fff2ab6
   0x1fff157e:	e77d    	b.n	0x1fff147c
   0x1fff1580:	0002    	movs	r2, r0
   0x1fff1582:	0004    	movs	r4, r0
   0x1fff1584:	5355    	strh	r5, [r2, r5]
   0x1fff1586:	5342    	strh	r2, [r0, r5]
   0x1fff1588:	0003    	movs	r3, r0
   0x1fff158a:	0001    	movs	r1, r0
   0x1fff158c:	1433    	asrs	r3, r6, #16
   0x1fff158e:	1fff    	subs	r7, r7, #7
   0x1fff1590:	1443    	asrs	r3, r0, #17
   0x1fff1592:	1fff    	subs	r7, r7, #7
   0x1fff1594:	131d    	asrs	r5, r3, #12
   0x1fff1596:	1fff    	subs	r7, r7, #7
   0x1fff1598:	b510    	push	{r4, lr}
   0x1fff159a:	1c04    	adds	r4, r0, #0
   0x1fff159c:	1c08    	adds	r0, r1, #0
   0x1fff159e:	1c11    	adds	r1, r2, #0
   0x1fff15a0:	f000 f80a	bl	0x1fff15b8
   0x1fff15a4:	c403    	stmia	r4!, {r0, r1}
   0x1fff15a6:	bd10    	pop	{r4, pc}
   0x1fff15a8:	b510    	push	{r4, lr}
   0x1fff15aa:	1c04    	adds	r4, r0, #0
   0x1fff15ac:	1c08    	adds	r0, r1, #0
   0x1fff15ae:	1c11    	adds	r1, r2, #0
   0x1fff15b0:	f000 f805	bl	0x1fff15be
   0x1fff15b4:	c403    	stmia	r4!, {r0, r1}
   0x1fff15b6:	bd10    	pop	{r4, pc}
   0x1fff15b8:	1c03    	adds	r3, r0, #0
   0x1fff15ba:	430b    	orrs	r3, r1
   0x1fff15bc:	d44a    	bmi.n	0x1fff1654
   0x1fff15be:	b530    	push	{r4, r5, lr}
   0x1fff15c0:	4684    	mov	r12, r0
   0x1fff15c2:	468e    	mov	lr, r1
   0x1fff15c4:	1e4a    	subs	r2, r1, #1
   0x1fff15c6:	d43f    	bmi.n	0x1fff1648
   0x1fff15c8:	251e    	movs	r5, #30
   0x1fff15ca:	0bca    	lsrs	r2, r1, #15
   0x1fff15cc:	d101    	bne.n	0x1fff15d2
   0x1fff15ce:	3d10    	subs	r5, #16
   0x1fff15d0:	0409    	lsls	r1, r1, #16
   0x1fff15d2:	0dca    	lsrs	r2, r1, #23
   0x1fff15d4:	d101    	bne.n	0x1fff15da
   0x1fff15d6:	3d08    	subs	r5, #8
   0x1fff15d8:	0209    	lsls	r1, r1, #8
   0x1fff15da:	0eca    	lsrs	r2, r1, #27
   0x1fff15dc:	d102    	bne.n	0x1fff15e4
   0x1fff15de:	3d04    	subs	r5, #4
   0x1fff15e0:	0109    	lsls	r1, r1, #4
   0x1fff15e2:	0eca    	lsrs	r2, r1, #27
   0x1fff15e4:	a328    	add	r3, pc, #160	@ (adr r3, 0x1fff1688)
   0x1fff15e6:	5c9a    	ldrb	r2, [r3, r2]
   0x1fff15e8:	1aad    	subs	r5, r5, r2
   0x1fff15ea:	4091    	lsls	r1, r2
   0x1fff15ec:	3b6f    	subs	r3, #111	@ 0x6f
   0x1fff15ee:	0dca    	lsrs	r2, r1, #23
   0x1fff15f0:	5c9b    	ldrb	r3, [r3, r2]
   0x1fff15f2:	33ff    	adds	r3, #255	@ 0xff
   0x1fff15f4:	0a8a    	lsrs	r2, r1, #10
   0x1fff15f6:	435a    	muls	r2, r3
   0x1fff15f8:	1192    	asrs	r2, r2, #6
   0x1fff15fa:	435a    	muls	r2, r3
   0x1fff15fc:	061b    	lsls	r3, r3, #24
   0x1fff15fe:	1a9b    	subs	r3, r3, r2
   0x1fff1600:	0bdb    	lsrs	r3, r3, #15
   0x1fff1602:	3b01    	subs	r3, #1
   0x1fff1604:	0c42    	lsrs	r2, r0, #17
   0x1fff1606:	435a    	muls	r2, r3
   0x1fff1608:	0d52    	lsrs	r2, r2, #21
   0x1fff160a:	02d4    	lsls	r4, r2, #11
   0x1fff160c:	0240    	lsls	r0, r0, #9
   0x1fff160e:	434a    	muls	r2, r1
   0x1fff1610:	1a80    	subs	r0, r0, r2
   0x1fff1612:	0c02    	lsrs	r2, r0, #16
   0x1fff1614:	435a    	muls	r2, r3
   0x1fff1616:	0d12    	lsrs	r2, r2, #20
   0x1fff1618:	4414    	add	r4, r2
   0x1fff161a:	02a4    	lsls	r4, r4, #10
   0x1fff161c:	02c0    	lsls	r0, r0, #11
   0x1fff161e:	434a    	muls	r2, r1
   0x1fff1620:	1a80    	subs	r0, r0, r2
   0x1fff1622:	0c02    	lsrs	r2, r0, #16
   0x1fff1624:	435a    	muls	r2, r3
   0x1fff1626:	0d52    	lsrs	r2, r2, #21
   0x1fff1628:	4414    	add	r4, r2
   0x1fff162a:	0280    	lsls	r0, r0, #10
   0x1fff162c:	434a    	muls	r2, r1
   0x1fff162e:	1a80    	subs	r0, r0, r2
   0x1fff1630:	2200    	movs	r2, #0
   0x1fff1632:	4288    	cmp	r0, r1
   0x1fff1634:	4154    	adcs	r4, r2
   0x1fff1636:	40ec    	lsrs	r4, r5
   0x1fff1638:	122d    	asrs	r5, r5, #8
   0x1fff163a:	406c    	eors	r4, r5
   0x1fff163c:	1b60    	subs	r0, r4, r5
   0x1fff163e:	4671    	mov	r1, lr
   0x1fff1640:	4341    	muls	r1, r0
   0x1fff1642:	4662    	mov	r2, r12
   0x1fff1644:	1a51    	subs	r1, r2, r1
   0x1fff1646:	bd30    	pop	{r4, r5, pc}
   0x1fff1648:	2900    	cmp	r1, #0
   0x1fff164a:	d011    	beq.n	0x1fff1670
   0x1fff164c:	2400    	movs	r4, #0
   0x1fff164e:	4288    	cmp	r0, r1
   0x1fff1650:	4164    	adcs	r4, r4
   0x1fff1652:	e7f1    	b.n	0x1fff1638
   0x1fff1654:	b530    	push	{r4, r5, lr}
   0x1fff1656:	4684    	mov	r12, r0
   0x1fff1658:	468e    	mov	lr, r1
   0x1fff165a:	17cd    	asrs	r5, r1, #31
   0x1fff165c:	4069    	eors	r1, r5
   0x1fff165e:	1b49    	subs	r1, r1, r5
   0x1fff1660:	17c2    	asrs	r2, r0, #31
   0x1fff1662:	4050    	eors	r0, r2
   0x1fff1664:	1a80    	subs	r0, r0, r2
   0x1fff1666:	4055    	eors	r5, r2
   0x1fff1668:	022d    	lsls	r5, r5, #8
   0x1fff166a:	351e    	adds	r5, #30
   0x1fff166c:	2900    	cmp	r1, #0
   0x1fff166e:	d1ac    	bne.n	0x1fff15ca
   0x1fff1670:	2000    	movs	r0, #0
   0x1fff1672:	bd30    	pop	{r4, r5, pc}
   0x1fff1674:	5243    	strh	r3, [r0, r1]
   0x1fff1676:	5f54    	ldrsh	r4, [r2, r5]
   0x1fff1678:	4944    	ldr	r1, [pc, #272]	@ (0x1fff178c)
   0x1fff167a:	4956    	ldr	r1, [pc, #344]	@ (0x1fff17d4)
   0x1fff167c:	4544    	cmp	r4, r8
   0x1fff167e:	525f    	strh	r7, [r3, r1]
   0x1fff1680:	4d4f    	ldr	r5, [pc, #316]	@ (0x1fff17c0)
   0x1fff1682:	2020    	movs	r0, #32
   0x1fff1684:	0001    	movs	r1, r0
   0x1fff1686:	0000    	movs	r0, r0
   0x1fff1688:	0300    	lsls	r0, r0, #12
   0x1fff168a:	0202    	lsls	r2, r0, #8
   0x1fff168c:	0101    	lsls	r1, r0, #4
   0x1fff168e:	0101    	lsls	r1, r0, #4
   0x1fff1690:	0000    	movs	r0, r0
   0x1fff1692:	0000    	movs	r0, r0
   0x1fff1694:	0000    	movs	r0, r0
   0x1fff1696:	0000    	movs	r0, r0
   0x1fff1698:	ff00 f7fb	vaba.u8	<illegal reg q7.5>, q8, <illegal reg q13.5>
   0x1fff169c:	f0f3 e8ec	blx	0x200e4878
   0x1fff16a0:	e1e5    	b.n	0x1fff1a6e
   0x1fff16a2:	dade    	bge.n	0x1fff1662
   0x1fff16a4:	d3d7    	bcc.n	0x1fff1656
   0x1fff16a6:	cdd0    	ldmia	r5!, {r4, r6, r7}
   0x1fff16a8:	c7ca    	stmia	r7!, {r1, r3, r6, r7}
   0x1fff16aa:	c0c3    	stmia	r0!, {r0, r1, r6, r7}
   0x1fff16ac:	babd    	hlt	0x003d
   0x1fff16ae:	b4b7    	push	{r0, r1, r2, r4, r5, r7}
   0x1fff16b0:	afb2    	add	r7, sp, #712	@ 0x2c8
   0x1fff16b2:	a9ac    	add	r1, sp, #688	@ 0x2b0
   0x1fff16b4:	a4a6    	add	r4, pc, #664	@ (adr r4, 0x1fff1950)
   0x1fff16b6:	9ea1    	ldr	r6, [sp, #644]	@ 0x284
   0x1fff16b8:	999c    	ldr	r1, [sp, #624]	@ 0x270
   0x1fff16ba:	9497    	str	r4, [sp, #604]	@ 0x25c
   0x1fff16bc:	8f92    	ldrh	r2, [r2, #60]	@ 0x3c
   0x1fff16be:	8b8d    	ldrh	r5, [r1, #28]
   0x1fff16c0:	8688    	strh	r0, [r1, #52]	@ 0x34
   0x1fff16c2:	8184    	strh	r4, [r0, #12]
   0x1fff16c4:	7d7f    	ldrb	r7, [r7, #21]
   0x1fff16c6:	797b    	ldrb	r3, [r7, #5]
   0x1fff16c8:	7476    	strb	r6, [r6, #17]
   0x1fff16ca:	7072    	strb	r2, [r6, #1]
   0x1fff16cc:	6c6e    	ldr	r6, [r5, #68]	@ 0x44
   0x1fff16ce:	686a    	ldr	r2, [r5, #4]
   0x1fff16d0:	6466    	str	r6, [r4, #68]	@ 0x44
   0x1fff16d2:	6062    	str	r2, [r4, #4]
   0x1fff16d4:	5d5f    	ldrb	r7, [r3, r5]
   0x1fff16d6:	595b    	ldr	r3, [r3, r5]
   0x1fff16d8:	5657    	ldrsb	r7, [r2, r1]
   0x1fff16da:	5254    	strh	r4, [r2, r1]
   0x1fff16dc:	4f50    	ldr	r7, [pc, #320]	@ (0x1fff1820)
   0x1fff16de:	4b4d    	ldr	r3, [pc, #308]	@ (0x1fff1814)
   0x1fff16e0:	484a    	ldr	r0, [pc, #296]	@ (0x1fff180c)
   0x1fff16e2:	4546    	cmp	r6, r8
   0x1fff16e4:	4143    	adcs	r3, r0
   0x1fff16e6:	3e40    	subs	r6, #64	@ 0x40
   0x1fff16e8:	3b3d    	subs	r3, #61	@ 0x3d
   0x1fff16ea:	383a    	subs	r0, #58	@ 0x3a
   0x1fff16ec:	3537    	adds	r5, #55	@ 0x37
   0x1fff16ee:	3334    	adds	r3, #52	@ 0x34
   0x1fff16f0:	3031    	adds	r0, #49	@ 0x31
   0x1fff16f2:	2d2e    	cmp	r5, #46	@ 0x2e
   0x1fff16f4:	2a2c    	cmp	r2, #44	@ 0x2c
   0x1fff16f6:	2829    	cmp	r0, #41	@ 0x29
   0x1fff16f8:	2526    	movs	r5, #38	@ 0x26
   0x1fff16fa:	2224    	movs	r2, #36	@ 0x24
   0x1fff16fc:	2021    	movs	r0, #33	@ 0x21
   0x1fff16fe:	1d1f    	adds	r7, r3, #4
   0x1fff1700:	1b1c    	subs	r4, r3, r4
   0x1fff1702:	181a    	adds	r2, r3, r0
   0x1fff1704:	1617    	asrs	r7, r2, #24
   0x1fff1706:	1415    	asrs	r5, r2, #16
   0x1fff1708:	1113    	asrs	r3, r2, #4
   0x1fff170a:	0f10    	lsrs	r0, r2, #28
   0x1fff170c:	0d0e    	lsrs	r6, r1, #20
   0x1fff170e:	0b0c    	lsrs	r4, r1, #12
   0x1fff1710:	090a    	lsrs	r2, r1, #4
   0x1fff1712:	0708    	lsls	r0, r1, #28
   0x1fff1714:	0506    	lsls	r6, r0, #20
   0x1fff1716:	0304    	lsls	r4, r0, #12
   0x1fff1718:	0101    	lsls	r1, r0, #4
   0x1fff171a:	46c0    	nop			@ (mov r8, r8)
   0x1fff171c:	b5f8    	push	{r3, r4, r5, r6, r7, lr}
   0x1fff171e:	4d39    	ldr	r5, [pc, #228]	@ (0x1fff1804)
   0x1fff1720:	4607    	mov	r7, r0
   0x1fff1722:	460c    	mov	r4, r1
   0x1fff1724:	682e    	ldr	r6, [r5, #0]
   0x1fff1726:	f7ff fa40	bl	0x1fff0baa
   0x1fff172a:	9000    	str	r0, [sp, #0]
   0x1fff172c:	f7ff fa3a	bl	0x1fff0ba4
   0x1fff1730:	03f0    	lsls	r0, r6, #15
   0x1fff1732:	d401    	bmi.n	0x1fff1738
   0x1fff1734:	4834    	ldr	r0, [pc, #208]	@ (0x1fff1808)
   0x1fff1736:	6028    	str	r0, [r5, #0]
   0x1fff1738:	683b    	ldr	r3, [r7, #0]
   0x1fff173a:	2100    	movs	r1, #0
   0x1fff173c:	3b32    	subs	r3, #50	@ 0x32
   0x1fff173e:	2040    	movs	r0, #64	@ 0x40
   0x1fff1740:	f000 f868	bl	0x1fff1814
   0x1fff1744:	080d    	lsrs	r5, r1, #32
   0x1fff1746:	120d    	asrs	r5, r1, #8
   0x1fff1748:	261c    	movs	r6, #28
   0x1fff174a:	213a    	movs	r1, #58	@ 0x3a
   0x1fff174c:	2b48    	cmp	r3, #72	@ 0x48
   0x1fff174e:	5517    	strb	r7, [r2, r4]
   0x1fff1750:	4f4b    	ldr	r7, [pc, #300]	@ (0x1fff1880)
   0x1fff1752:	0055    	lsls	r5, r2, #1
   0x1fff1754:	4621    	mov	r1, r4
   0x1fff1756:	4638    	mov	r0, r7
   0x1fff1758:	f000 faff	bl	0x1fff1d5a
   0x1fff175c:	e049    	b.n	0x1fff17f2
   0x1fff175e:	4621    	mov	r1, r4
   0x1fff1760:	4638    	mov	r0, r7
   0x1fff1762:	f000 fa2e	bl	0x1fff1bc2
   0x1fff1766:	e044    	b.n	0x1fff17f2
   0x1fff1768:	4621    	mov	r1, r4
   0x1fff176a:	4638    	mov	r0, r7
   0x1fff176c:	f000 f99c	bl	0x1fff1aa8
   0x1fff1770:	e03f    	b.n	0x1fff17f2
   0x1fff1772:	4621    	mov	r1, r4
   0x1fff1774:	4638    	mov	r0, r7
   0x1fff1776:	f000 f928	bl	0x1fff19ca
   0x1fff177a:	e03a    	b.n	0x1fff17f2
   0x1fff177c:	4621    	mov	r1, r4
   0x1fff177e:	4638    	mov	r0, r7
   0x1fff1780:	f000 f873	bl	0x1fff186a
   0x1fff1784:	e035    	b.n	0x1fff17f2
   0x1fff1786:	4621    	mov	r1, r4
   0x1fff1788:	4638    	mov	r0, r7
   0x1fff178a:	f000 fb3b	bl	0x1fff1e04
   0x1fff178e:	e030    	b.n	0x1fff17f2
   0x1fff1790:	481e    	ldr	r0, [pc, #120]	@ (0x1fff180c)
   0x1fff1792:	6021    	str	r1, [r4, #0]
   0x1fff1794:	6b80    	ldr	r0, [r0, #56]	@ 0x38
   0x1fff1796:	6060    	str	r0, [r4, #4]
   0x1fff1798:	e02b    	b.n	0x1fff17f2
   0x1fff179a:	6021    	str	r1, [r4, #0]
   0x1fff179c:	6829    	ldr	r1, [r5, #0]
   0x1fff179e:	4301    	orrs	r1, r0
   0x1fff17a0:	6029    	str	r1, [r5, #0]
   0x1fff17a2:	2101    	movs	r1, #1
   0x1fff17a4:	0249    	lsls	r1, r1, #9
   0x1fff17a6:	680a    	ldr	r2, [r1, #0]
   0x1fff17a8:	6062    	str	r2, [r4, #4]
   0x1fff17aa:	684a    	ldr	r2, [r1, #4]
   0x1fff17ac:	60a2    	str	r2, [r4, #8]
   0x1fff17ae:	688a    	ldr	r2, [r1, #8]
   0x1fff17b0:	60e2    	str	r2, [r4, #12]
   0x1fff17b2:	68c9    	ldr	r1, [r1, #12]
   0x1fff17b4:	6121    	str	r1, [r4, #16]
   0x1fff17b6:	e006    	b.n	0x1fff17c6
   0x1fff17b8:	6021    	str	r1, [r4, #0]
   0x1fff17ba:	6829    	ldr	r1, [r5, #0]
   0x1fff17bc:	4301    	orrs	r1, r0
   0x1fff17be:	6029    	str	r1, [r5, #0]
   0x1fff17c0:	4913    	ldr	r1, [pc, #76]	@ (0x1fff1810)
   0x1fff17c2:	6809    	ldr	r1, [r1, #0]
   0x1fff17c4:	6061    	str	r1, [r4, #4]
   0x1fff17c6:	6829    	ldr	r1, [r5, #0]
   0x1fff17c8:	4381    	bics	r1, r0
   0x1fff17ca:	6029    	str	r1, [r5, #0]
   0x1fff17cc:	6829    	ldr	r1, [r5, #0]
   0x1fff17ce:	4381    	bics	r1, r0
   0x1fff17d0:	6029    	str	r1, [r5, #0]
   0x1fff17d2:	e00e    	b.n	0x1fff17f2
   0x1fff17d4:	f000 fb0f	bl	0x1fff1df6
   0x1fff17d8:	e00b    	b.n	0x1fff17f2
   0x1fff17da:	4622    	mov	r2, r4
   0x1fff17dc:	4639    	mov	r1, r7
   0x1fff17de:	2001    	movs	r0, #1
   0x1fff17e0:	e002    	b.n	0x1fff17e8
   0x1fff17e2:	4622    	mov	r2, r4
   0x1fff17e4:	4639    	mov	r1, r7
   0x1fff17e6:	2000    	movs	r0, #0
   0x1fff17e8:	f000 fae4	bl	0x1fff1db4
   0x1fff17ec:	e001    	b.n	0x1fff17f2
   0x1fff17ee:	2001    	movs	r0, #1
   0x1fff17f0:	6020    	str	r0, [r4, #0]
   0x1fff17f2:	2003    	movs	r0, #3
   0x1fff17f4:	0400    	lsls	r0, r0, #16
   0x1fff17f6:	4306    	orrs	r6, r0
   0x1fff17f8:	602e    	str	r6, [r5, #0]
   0x1fff17fa:	9800    	ldr	r0, [sp, #0]
   0x1fff17fc:	f7ff f9ca	bl	0x1fff0b94
   0x1fff1800:	bdf8    	pop	{r3, r4, r5, r6, r7, pc}
   0x1fff1802:	0000    	movs	r0, r0
   0x1fff1804:	c000    	stmia	r0!, {}
   0x1fff1806:	4003    	ands	r3, r0
   0x1fff1808:	0005    	movs	r5, r0
   0x1fff180a:	0001    	movs	r1, r0
   0x1fff180c:	83c0    	strh	r0, [r0, #30]
   0x1fff180e:	4004    	ands	r4, r0
   0x1fff1810:	0434    	lsls	r4, r6, #16
   0x1fff1812:	0000    	movs	r0, r0
   0x1fff1814:	b430    	push	{r4, r5}
   0x1fff1816:	4674    	mov	r4, lr
   0x1fff1818:	1e64    	subs	r4, r4, #1
   0x1fff181a:	7825    	ldrb	r5, [r4, #0]
   0x1fff181c:	1c64    	adds	r4, r4, #1
   0x1fff181e:	42ab    	cmp	r3, r5
   0x1fff1820:	d200    	bcs.n	0x1fff1824
   0x1fff1822:	461d    	mov	r5, r3
   0x1fff1824:	5d63    	ldrb	r3, [r4, r5]
   0x1fff1826:	005b    	lsls	r3, r3, #1
   0x1fff1828:	18e3    	adds	r3, r4, r3
   0x1fff182a:	bc30    	pop	{r4, r5}
   0x1fff182c:	4718    	bx	r3
   0x1fff182e:	ffff b530	vsli.32	d27, d16, #31
   0x1fff1832:	4afe    	ldr	r2, [pc, #1016]	@ (0x1fff1c2c)
   0x1fff1834:	6814    	ldr	r4, [r2, #0]
   0x1fff1836:	2340    	movs	r3, #64	@ 0x40
   0x1fff1838:	431c    	orrs	r4, r3
   0x1fff183a:	6014    	str	r4, [r2, #0]
   0x1fff183c:	4cfc    	ldr	r4, [pc, #1008]	@ (0x1fff1c30)
   0x1fff183e:	78e5    	ldrb	r5, [r4, #3]
   0x1fff1840:	4285    	cmp	r5, r0
   0x1fff1842:	d302    	bcc.n	0x1fff184a
   0x1fff1844:	b2ec    	uxtb	r4, r5
   0x1fff1846:	428c    	cmp	r4, r1
   0x1fff1848:	d203    	bcs.n	0x1fff1852
   0x1fff184a:	6810    	ldr	r0, [r2, #0]
   0x1fff184c:	4398    	bics	r0, r3
   0x1fff184e:	6010    	str	r0, [r2, #0]
   0x1fff1850:	e004    	b.n	0x1fff185c
   0x1fff1852:	6814    	ldr	r4, [r2, #0]
   0x1fff1854:	439c    	bics	r4, r3
   0x1fff1856:	6014    	str	r4, [r2, #0]
   0x1fff1858:	4288    	cmp	r0, r1
   0x1fff185a:	d901    	bls.n	0x1fff1860
   0x1fff185c:	2007    	movs	r0, #7
   0x1fff185e:	bd30    	pop	{r4, r5, pc}
   0x1fff1860:	6810    	ldr	r0, [r2, #0]
   0x1fff1862:	4398    	bics	r0, r3
   0x1fff1864:	6010    	str	r0, [r2, #0]
   0x1fff1866:	2000    	movs	r0, #0
   0x1fff1868:	bd30    	pop	{r4, r5, pc}
   0x1fff186a:	b530    	push	{r4, r5, lr}
   0x1fff186c:	460c    	mov	r4, r1
   0x1fff186e:	4605    	mov	r5, r0
   0x1fff1870:	6881    	ldr	r1, [r0, #8]
   0x1fff1872:	6840    	ldr	r0, [r0, #4]
   0x1fff1874:	f7ff ffdc	bl	0x1fff1830
   0x1fff1878:	6020    	str	r0, [r4, #0]
   0x1fff187a:	2800    	cmp	r0, #0
   0x1fff187c:	d115    	bne.n	0x1fff18aa
   0x1fff187e:	6868    	ldr	r0, [r5, #4]
   0x1fff1880:	2301    	movs	r3, #1
   0x1fff1882:	0301    	lsls	r1, r0, #12
   0x1fff1884:	68a8    	ldr	r0, [r5, #8]
   0x1fff1886:	031b    	lsls	r3, r3, #12
   0x1fff1888:	0300    	lsls	r0, r0, #12
   0x1fff188a:	18c3    	adds	r3, r0, r3
   0x1fff188c:	2001    	movs	r0, #1
   0x1fff188e:	460a    	mov	r2, r1
   0x1fff1890:	0440    	lsls	r0, r0, #17
   0x1fff1892:	e00c    	b.n	0x1fff18ae
   0x1fff1894:	1815    	adds	r5, r2, r0
   0x1fff1896:	682d    	ldr	r5, [r5, #0]
   0x1fff1898:	1c6d    	adds	r5, r5, #1
   0x1fff189a:	d007    	beq.n	0x1fff18ac
   0x1fff189c:	2308    	movs	r3, #8
   0x1fff189e:	1a51    	subs	r1, r2, r1
   0x1fff18a0:	6023    	str	r3, [r4, #0]
   0x1fff18a2:	1810    	adds	r0, r2, r0
   0x1fff18a4:	6061    	str	r1, [r4, #4]
   0x1fff18a6:	6800    	ldr	r0, [r0, #0]
   0x1fff18a8:	60a0    	str	r0, [r4, #8]
   0x1fff18aa:	bd30    	pop	{r4, r5, pc}
   0x1fff18ac:	1d12    	adds	r2, r2, #4
   0x1fff18ae:	429a    	cmp	r2, r3
   0x1fff18b0:	d3f0    	bcc.n	0x1fff1894
   0x1fff18b2:	2000    	movs	r0, #0
   0x1fff18b4:	6020    	str	r0, [r4, #0]
   0x1fff18b6:	bd30    	pop	{r4, r5, pc}
   0x1fff18b8:	b510    	push	{r4, lr}
   0x1fff18ba:	9c02    	ldr	r4, [sp, #8]
   0x1fff18bc:	6001    	str	r1, [r0, #0]
   0x1fff18be:	2a00    	cmp	r2, #0
   0x1fff18c0:	d004    	beq.n	0x1fff18cc
   0x1fff18c2:	6013    	str	r3, [r2, #0]
   0x1fff18c4:	6810    	ldr	r0, [r2, #0]
   0x1fff18c6:	4218    	tst	r0, r3
   0x1fff18c8:	d1fc    	bne.n	0x1fff18c4
   0x1fff18ca:	bd10    	pop	{r4, pc}
   0x1fff18cc:	6820    	ldr	r0, [r4, #0]
   0x1fff18ce:	0740    	lsls	r0, r0, #29
   0x1fff18d0:	d0fc    	beq.n	0x1fff18cc
   0x1fff18d2:	bd10    	pop	{r4, pc}
   0x1fff18d4:	b5f8    	push	{r3, r4, r5, r6, r7, lr}
   0x1fff18d6:	4fd5    	ldr	r7, [pc, #852]	@ (0x1fff1c2c)
   0x1fff18d8:	468c    	mov	r12, r1
   0x1fff18da:	6879    	ldr	r1, [r7, #4]
   0x1fff18dc:	4604    	mov	r4, r0
   0x1fff18de:	4616    	mov	r6, r2
   0x1fff18e0:	2500    	movs	r5, #0
   0x1fff18e2:	2005    	movs	r0, #5
   0x1fff18e4:	4388    	bics	r0, r1
   0x1fff18e6:	d011    	beq.n	0x1fff190c
   0x1fff18e8:	200b    	movs	r0, #11
   0x1fff18ea:	bdf8    	pop	{r3, r4, r5, r6, r7, pc}
   0x1fff18ec:	2001    	movs	r0, #1
   0x1fff18ee:	40a0    	lsls	r0, r4
   0x1fff18f0:	4305    	orrs	r5, r0
   0x1fff18f2:	2001    	movs	r0, #1
   0x1fff18f4:	0321    	lsls	r1, r4, #12
   0x1fff18f6:	0440    	lsls	r0, r0, #17
   0x1fff18f8:	1808    	adds	r0, r1, r0
   0x1fff18fa:	6006    	str	r6, [r0, #0]
   0x1fff18fc:	2300    	movs	r3, #0
   0x1fff18fe:	4638    	mov	r0, r7
   0x1fff1900:	461a    	mov	r2, r3
   0x1fff1902:	49cc    	ldr	r1, [pc, #816]	@ (0x1fff1c34)
   0x1fff1904:	9700    	str	r7, [sp, #0]
   0x1fff1906:	f7ff ffd7	bl	0x1fff18b8
   0x1fff190a:	1c64    	adds	r4, r4, #1
   0x1fff190c:	4564    	cmp	r4, r12
   0x1fff190e:	d9ed    	bls.n	0x1fff18ec
   0x1fff1910:	6838    	ldr	r0, [r7, #0]
   0x1fff1912:	2140    	movs	r1, #64	@ 0x40
   0x1fff1914:	4308    	orrs	r0, r1
   0x1fff1916:	6038    	str	r0, [r7, #0]
   0x1fff1918:	48c7    	ldr	r0, [pc, #796]	@ (0x1fff1c38)
   0x1fff191a:	6800    	ldr	r0, [r0, #0]
   0x1fff191c:	383f    	subs	r0, #63	@ 0x3f
   0x1fff191e:	2e00    	cmp	r6, #0
   0x1fff1920:	d102    	bne.n	0x1fff1928
   0x1fff1922:	6bc2    	ldr	r2, [r0, #60]	@ 0x3c
   0x1fff1924:	43aa    	bics	r2, r5
   0x1fff1926:	63c2    	str	r2, [r0, #60]	@ 0x3c
   0x1fff1928:	1c76    	adds	r6, r6, #1
   0x1fff192a:	d102    	bne.n	0x1fff1932
   0x1fff192c:	6bc2    	ldr	r2, [r0, #60]	@ 0x3c
   0x1fff192e:	432a    	orrs	r2, r5
   0x1fff1930:	63c2    	str	r2, [r0, #60]	@ 0x3c
   0x1fff1932:	6838    	ldr	r0, [r7, #0]
   0x1fff1934:	4388    	bics	r0, r1
   0x1fff1936:	6038    	str	r0, [r7, #0]
   0x1fff1938:	2000    	movs	r0, #0
   0x1fff193a:	bdf8    	pop	{r3, r4, r5, r6, r7, pc}
   0x1fff193c:	b510    	push	{r4, lr}
   0x1fff193e:	49bb    	ldr	r1, [pc, #748]	@ (0x1fff1c2c)
   0x1fff1940:	680a    	ldr	r2, [r1, #0]
   0x1fff1942:	2301    	movs	r3, #1
   0x1fff1944:	045b    	lsls	r3, r3, #17
   0x1fff1946:	439a    	bics	r2, r3
   0x1fff1948:	600a    	str	r2, [r1, #0]
   0x1fff194a:	2400    	movs	r4, #0
   0x1fff194c:	49bb    	ldr	r1, [pc, #748]	@ (0x1fff1c3c)
   0x1fff194e:	f002 fabb	bl	0x1fff3ec8
   0x1fff1952:	1c40    	adds	r0, r0, #1
   0x1fff1954:	e000    	b.n	0x1fff1958
   0x1fff1956:	1c64    	adds	r4, r4, #1
   0x1fff1958:	42a0    	cmp	r0, r4
   0x1fff195a:	d8fc    	bhi.n	0x1fff1956
   0x1fff195c:	bd10    	pop	{r4, pc}
   0x1fff195e:	b510    	push	{r4, lr}
   0x1fff1960:	2200    	movs	r2, #0
   0x1fff1962:	2401    	movs	r4, #1
   0x1fff1964:	e003    	b.n	0x1fff196e
   0x1fff1966:	4623    	mov	r3, r4
   0x1fff1968:	4083    	lsls	r3, r0
   0x1fff196a:	431a    	orrs	r2, r3
   0x1fff196c:	1c40    	adds	r0, r0, #1
   0x1fff196e:	4288    	cmp	r0, r1
   0x1fff1970:	d9f9    	bls.n	0x1fff1966
   0x1fff1972:	48ae    	ldr	r0, [pc, #696]	@ (0x1fff1c2c)
   0x1fff1974:	6801    	ldr	r1, [r0, #0]
   0x1fff1976:	2340    	movs	r3, #64	@ 0x40
   0x1fff1978:	4319    	orrs	r1, r3
   0x1fff197a:	6001    	str	r1, [r0, #0]
   0x1fff197c:	49ae    	ldr	r1, [pc, #696]	@ (0x1fff1c38)
   0x1fff197e:	6809    	ldr	r1, [r1, #0]
   0x1fff1980:	393f    	subs	r1, #63	@ 0x3f
   0x1fff1982:	6bc9    	ldr	r1, [r1, #60]	@ 0x3c
   0x1fff1984:	4011    	ands	r1, r2
   0x1fff1986:	6802    	ldr	r2, [r0, #0]
   0x1fff1988:	439a    	bics	r2, r3
   0x1fff198a:	6002    	str	r2, [r0, #0]
   0x1fff198c:	2900    	cmp	r1, #0
   0x1fff198e:	d001    	beq.n	0x1fff1994
   0x1fff1990:	2009    	movs	r0, #9
   0x1fff1992:	bd10    	pop	{r4, pc}
   0x1fff1994:	2000    	movs	r0, #0
   0x1fff1996:	bd10    	pop	{r4, pc}
   0x1fff1998:	b570    	push	{r4, r5, r6, lr}
   0x1fff199a:	49a4    	ldr	r1, [pc, #656]	@ (0x1fff1c2c)
   0x1fff199c:	4603    	mov	r3, r0
   0x1fff199e:	6808    	ldr	r0, [r1, #0]
   0x1fff19a0:	2240    	movs	r2, #64	@ 0x40
   0x1fff19a2:	4310    	orrs	r0, r2
   0x1fff19a4:	6008    	str	r0, [r1, #0]
   0x1fff19a6:	2000    	movs	r0, #0
   0x1fff19a8:	148c    	asrs	r4, r1, #18
   0x1fff19aa:	4da1    	ldr	r5, [pc, #644]	@ (0x1fff1c30)
   0x1fff19ac:	e004    	b.n	0x1fff19b8
   0x1fff19ae:	0306    	lsls	r6, r0, #12
   0x1fff19b0:	1936    	adds	r6, r6, r4
   0x1fff19b2:	429e    	cmp	r6, r3
   0x1fff19b4:	d803    	bhi.n	0x1fff19be
   0x1fff19b6:	1c40    	adds	r0, r0, #1
   0x1fff19b8:	78ee    	ldrb	r6, [r5, #3]
   0x1fff19ba:	4286    	cmp	r6, r0
   0x1fff19bc:	d2f7    	bcs.n	0x1fff19ae
   0x1fff19be:	680b    	ldr	r3, [r1, #0]
   0x1fff19c0:	4393    	bics	r3, r2
   0x1fff19c2:	600b    	str	r3, [r1, #0]
   0x1fff19c4:	bd70    	pop	{r4, r5, r6, pc}
   0x1fff19c6:	0200    	lsls	r0, r0, #8
   0x1fff19c8:	e7e6    	b.n	0x1fff1998
   0x1fff19ca:	b5f3    	push	{r0, r1, r4, r5, r6, r7, lr}
   0x1fff19cc:	4605    	mov	r5, r0
   0x1fff19ce:	b083    	sub	sp, #12
   0x1fff19d0:	6840    	ldr	r0, [r0, #4]
   0x1fff19d2:	f7ff fff8	bl	0x1fff19c6
   0x1fff19d6:	9002    	str	r0, [sp, #8]
   0x1fff19d8:	68a8    	ldr	r0, [r5, #8]
   0x1fff19da:	f7ff fff4	bl	0x1fff19c6
   0x1fff19de:	4601    	mov	r1, r0
   0x1fff19e0:	9001    	str	r0, [sp, #4]
   0x1fff19e2:	9802    	ldr	r0, [sp, #8]
   0x1fff19e4:	f7ff ff24	bl	0x1fff1830
   0x1fff19e8:	9904    	ldr	r1, [sp, #16]
   0x1fff19ea:	2800    	cmp	r0, #0
   0x1fff19ec:	6008    	str	r0, [r1, #0]
   0x1fff19ee:	d159    	bne.n	0x1fff1aa4
   0x1fff19f0:	9901    	ldr	r1, [sp, #4]
   0x1fff19f2:	9802    	ldr	r0, [sp, #8]
   0x1fff19f4:	f7ff ffb3	bl	0x1fff195e
   0x1fff19f8:	9904    	ldr	r1, [sp, #16]
   0x1fff19fa:	2800    	cmp	r0, #0
   0x1fff19fc:	6008    	str	r0, [r1, #0]
   0x1fff19fe:	d151    	bne.n	0x1fff1aa4
   0x1fff1a00:	68e8    	ldr	r0, [r5, #12]
   0x1fff1a02:	f7ff ff9b	bl	0x1fff193c
   0x1fff1a06:	4e89    	ldr	r6, [pc, #548]	@ (0x1fff1c2c)
   0x1fff1a08:	6830    	ldr	r0, [r6, #0]
   0x1fff1a0a:	2140    	movs	r1, #64	@ 0x40
   0x1fff1a0c:	4308    	orrs	r0, r1
   0x1fff1a0e:	6030    	str	r0, [r6, #0]
   0x1fff1a10:	4c87    	ldr	r4, [pc, #540]	@ (0x1fff1c30)
   0x1fff1a12:	68e8    	ldr	r0, [r5, #12]
   0x1fff1a14:	7821    	ldrb	r1, [r4, #0]
   0x1fff1a16:	f002 fa57	bl	0x1fff3ec8
   0x1fff1a1a:	61f0    	str	r0, [r6, #28]
   0x1fff1a1c:	78a0    	ldrb	r0, [r4, #2]
   0x1fff1a1e:	68e9    	ldr	r1, [r5, #12]
   0x1fff1a20:	4348    	muls	r0, r1
   0x1fff1a22:	0a47    	lsrs	r7, r0, #9
   0x1fff1a24:	6831    	ldr	r1, [r6, #0]
   0x1fff1a26:	1cff    	adds	r7, r7, #3
   0x1fff1a28:	2040    	movs	r0, #64	@ 0x40
   0x1fff1a2a:	4381    	bics	r1, r0
   0x1fff1a2c:	6031    	str	r1, [r6, #0]
   0x1fff1a2e:	4a84    	ldr	r2, [pc, #528]	@ (0x1fff1c40)
   0x1fff1a30:	6a10    	ldr	r0, [r2, #32]
   0x1fff1a32:	4984    	ldr	r1, [pc, #528]	@ (0x1fff1c44)
   0x1fff1a34:	4684    	mov	r12, r0
   0x1fff1a36:	4884    	ldr	r0, [pc, #528]	@ (0x1fff1c48)
   0x1fff1a38:	6101    	str	r1, [r0, #16]
   0x1fff1a3a:	2100    	movs	r1, #0
   0x1fff1a3c:	6211    	str	r1, [r2, #32]
   0x1fff1a3e:	6101    	str	r1, [r0, #16]
   0x1fff1a40:	2001    	movs	r0, #1
   0x1fff1a42:	03c0    	lsls	r0, r0, #15
   0x1fff1a44:	4307    	orrs	r7, r0
   0x1fff1a46:	686c    	ldr	r4, [r5, #4]
   0x1fff1a48:	e019    	b.n	0x1fff1a7e
   0x1fff1a4a:	60b7    	str	r7, [r6, #8]
   0x1fff1a4c:	2001    	movs	r0, #1
   0x1fff1a4e:	0222    	lsls	r2, r4, #8
   0x1fff1a50:	0441    	lsls	r1, r0, #17
   0x1fff1a52:	1851    	adds	r1, r2, r1
   0x1fff1a54:	6008    	str	r0, [r1, #0]
   0x1fff1a56:	2300    	movs	r3, #0
   0x1fff1a58:	461a    	mov	r2, r3
   0x1fff1a5a:	497c    	ldr	r1, [pc, #496]	@ (0x1fff1c4c)
   0x1fff1a5c:	4630    	mov	r0, r6
   0x1fff1a5e:	9600    	str	r6, [sp, #0]
   0x1fff1a60:	f7ff ff2a	bl	0x1fff18b8
   0x1fff1a64:	497a    	ldr	r1, [pc, #488]	@ (0x1fff1c50)
   0x1fff1a66:	2007    	movs	r0, #7
   0x1fff1a68:	6288    	str	r0, [r1, #40]	@ 0x28
   0x1fff1a6a:	4879    	ldr	r0, [pc, #484]	@ (0x1fff1c50)
   0x1fff1a6c:	2300    	movs	r3, #0
   0x1fff1a6e:	3020    	adds	r0, #32
   0x1fff1a70:	9000    	str	r0, [sp, #0]
   0x1fff1a72:	461a    	mov	r2, r3
   0x1fff1a74:	4977    	ldr	r1, [pc, #476]	@ (0x1fff1c54)
   0x1fff1a76:	4630    	mov	r0, r6
   0x1fff1a78:	f7ff ff1e	bl	0x1fff18b8
   0x1fff1a7c:	1c64    	adds	r4, r4, #1
   0x1fff1a7e:	68a8    	ldr	r0, [r5, #8]
   0x1fff1a80:	42a0    	cmp	r0, r4
   0x1fff1a82:	d2e2    	bcs.n	0x1fff1a4a
   0x1fff1a84:	4970    	ldr	r1, [pc, #448]	@ (0x1fff1c48)
   0x1fff1a86:	486f    	ldr	r0, [pc, #444]	@ (0x1fff1c44)
   0x1fff1a88:	6108    	str	r0, [r1, #16]
   0x1fff1a8a:	486d    	ldr	r0, [pc, #436]	@ (0x1fff1c40)
   0x1fff1a8c:	4662    	mov	r2, r12
   0x1fff1a8e:	6202    	str	r2, [r0, #32]
   0x1fff1a90:	2400    	movs	r4, #0
   0x1fff1a92:	610c    	str	r4, [r1, #16]
   0x1fff1a94:	1e62    	subs	r2, r4, #1
   0x1fff1a96:	9901    	ldr	r1, [sp, #4]
   0x1fff1a98:	9802    	ldr	r0, [sp, #8]
   0x1fff1a9a:	f7ff ff1b	bl	0x1fff18d4
   0x1fff1a9e:	9904    	ldr	r1, [sp, #16]
   0x1fff1aa0:	6008    	str	r0, [r1, #0]
   0x1fff1aa2:	61f4    	str	r4, [r6, #28]
   0x1fff1aa4:	b005    	add	sp, #20
   0x1fff1aa6:	bdf0    	pop	{r4, r5, r6, r7, pc}
   0x1fff1aa8:	b5f8    	push	{r3, r4, r5, r6, r7, lr}
   0x1fff1aaa:	460d    	mov	r5, r1
   0x1fff1aac:	4604    	mov	r4, r0
   0x1fff1aae:	6881    	ldr	r1, [r0, #8]
   0x1fff1ab0:	6840    	ldr	r0, [r0, #4]
   0x1fff1ab2:	f7ff febd	bl	0x1fff1830
   0x1fff1ab6:	6028    	str	r0, [r5, #0]
   0x1fff1ab8:	2800    	cmp	r0, #0
   0x1fff1aba:	d164    	bne.n	0x1fff1b86
   0x1fff1abc:	68a1    	ldr	r1, [r4, #8]
   0x1fff1abe:	6860    	ldr	r0, [r4, #4]
   0x1fff1ac0:	f7ff ff4d	bl	0x1fff195e
   0x1fff1ac4:	6028    	str	r0, [r5, #0]
   0x1fff1ac6:	68e0    	ldr	r0, [r4, #12]
   0x1fff1ac8:	f7ff ff38	bl	0x1fff193c
   0x1fff1acc:	6828    	ldr	r0, [r5, #0]
   0x1fff1ace:	2800    	cmp	r0, #0
   0x1fff1ad0:	d159    	bne.n	0x1fff1b86
   0x1fff1ad2:	4e56    	ldr	r6, [pc, #344]	@ (0x1fff1c2c)
   0x1fff1ad4:	6830    	ldr	r0, [r6, #0]
   0x1fff1ad6:	2140    	movs	r1, #64	@ 0x40
   0x1fff1ad8:	4308    	orrs	r0, r1
   0x1fff1ada:	6030    	str	r0, [r6, #0]
   0x1fff1adc:	4f54    	ldr	r7, [pc, #336]	@ (0x1fff1c30)
   0x1fff1ade:	68e0    	ldr	r0, [r4, #12]
   0x1fff1ae0:	7839    	ldrb	r1, [r7, #0]
   0x1fff1ae2:	f002 f9f1	bl	0x1fff3ec8
   0x1fff1ae6:	61f0    	str	r0, [r6, #28]
   0x1fff1ae8:	78b8    	ldrb	r0, [r7, #2]
   0x1fff1aea:	68e1    	ldr	r1, [r4, #12]
   0x1fff1aec:	4348    	muls	r0, r1
   0x1fff1aee:	0a40    	lsrs	r0, r0, #9
   0x1fff1af0:	1cc0    	adds	r0, r0, #3
   0x1fff1af2:	2101    	movs	r1, #1
   0x1fff1af4:	03c9    	lsls	r1, r1, #15
   0x1fff1af6:	4308    	orrs	r0, r1
   0x1fff1af8:	60b0    	str	r0, [r6, #8]
   0x1fff1afa:	6831    	ldr	r1, [r6, #0]
   0x1fff1afc:	2040    	movs	r0, #64	@ 0x40
   0x1fff1afe:	4381    	bics	r1, r0
   0x1fff1b00:	6031    	str	r1, [r6, #0]
   0x1fff1b02:	6866    	ldr	r6, [r4, #4]
   0x1fff1b04:	68a0    	ldr	r0, [r4, #8]
   0x1fff1b06:	2701    	movs	r7, #1
   0x1fff1b08:	4286    	cmp	r6, r0
   0x1fff1b0a:	d10e    	bne.n	0x1fff1b2a
   0x1fff1b0c:	e011    	b.n	0x1fff1b32
   0x1fff1b0e:	2001    	movs	r0, #1
   0x1fff1b10:	0331    	lsls	r1, r6, #12
   0x1fff1b12:	0440    	lsls	r0, r0, #17
   0x1fff1b14:	1808    	adds	r0, r1, r0
   0x1fff1b16:	6007    	str	r7, [r0, #0]
   0x1fff1b18:	4946    	ldr	r1, [pc, #280]	@ (0x1fff1c34)
   0x1fff1b1a:	4844    	ldr	r0, [pc, #272]	@ (0x1fff1c2c)
   0x1fff1b1c:	2300    	movs	r3, #0
   0x1fff1b1e:	461a    	mov	r2, r3
   0x1fff1b20:	1e89    	subs	r1, r1, #2
   0x1fff1b22:	9000    	str	r0, [sp, #0]
   0x1fff1b24:	f7ff fec8	bl	0x1fff18b8
   0x1fff1b28:	1c76    	adds	r6, r6, #1
   0x1fff1b2a:	68a0    	ldr	r0, [r4, #8]
   0x1fff1b2c:	1e40    	subs	r0, r0, #1
   0x1fff1b2e:	42b0    	cmp	r0, r6
   0x1fff1b30:	d2ed    	bcs.n	0x1fff1b0e
   0x1fff1b32:	68a0    	ldr	r0, [r4, #8]
   0x1fff1b34:	0301    	lsls	r1, r0, #12
   0x1fff1b36:	2001    	movs	r0, #1
   0x1fff1b38:	0440    	lsls	r0, r0, #17
   0x1fff1b3a:	1808    	adds	r0, r1, r0
   0x1fff1b3c:	6007    	str	r7, [r0, #0]
   0x1fff1b3e:	4944    	ldr	r1, [pc, #272]	@ (0x1fff1c50)
   0x1fff1b40:	2007    	movs	r0, #7
   0x1fff1b42:	6288    	str	r0, [r1, #40]	@ 0x28
   0x1fff1b44:	483e    	ldr	r0, [pc, #248]	@ (0x1fff1c40)
   0x1fff1b46:	6a00    	ldr	r0, [r0, #32]
   0x1fff1b48:	4e3f    	ldr	r6, [pc, #252]	@ (0x1fff1c48)
   0x1fff1b4a:	4684    	mov	r12, r0
   0x1fff1b4c:	483d    	ldr	r0, [pc, #244]	@ (0x1fff1c44)
   0x1fff1b4e:	6130    	str	r0, [r6, #16]
   0x1fff1b50:	483b    	ldr	r0, [pc, #236]	@ (0x1fff1c40)
   0x1fff1b52:	2700    	movs	r7, #0
   0x1fff1b54:	6207    	str	r7, [r0, #32]
   0x1fff1b56:	6137    	str	r7, [r6, #16]
   0x1fff1b58:	483d    	ldr	r0, [pc, #244]	@ (0x1fff1c50)
   0x1fff1b5a:	463b    	mov	r3, r7
   0x1fff1b5c:	3020    	adds	r0, #32
   0x1fff1b5e:	9000    	str	r0, [sp, #0]
   0x1fff1b60:	463a    	mov	r2, r7
   0x1fff1b62:	493d    	ldr	r1, [pc, #244]	@ (0x1fff1c58)
   0x1fff1b64:	4831    	ldr	r0, [pc, #196]	@ (0x1fff1c2c)
   0x1fff1b66:	f7ff fea7	bl	0x1fff18b8
   0x1fff1b6a:	4836    	ldr	r0, [pc, #216]	@ (0x1fff1c44)
   0x1fff1b6c:	6130    	str	r0, [r6, #16]
   0x1fff1b6e:	4934    	ldr	r1, [pc, #208]	@ (0x1fff1c40)
   0x1fff1b70:	4660    	mov	r0, r12
   0x1fff1b72:	6208    	str	r0, [r1, #32]
   0x1fff1b74:	6137    	str	r7, [r6, #16]
   0x1fff1b76:	1e7a    	subs	r2, r7, #1
   0x1fff1b78:	68a1    	ldr	r1, [r4, #8]
   0x1fff1b7a:	6860    	ldr	r0, [r4, #4]
   0x1fff1b7c:	f7ff feaa	bl	0x1fff18d4
   0x1fff1b80:	6028    	str	r0, [r5, #0]
   0x1fff1b82:	482a    	ldr	r0, [pc, #168]	@ (0x1fff1c2c)
   0x1fff1b84:	61c7    	str	r7, [r0, #28]
   0x1fff1b86:	bdf8    	pop	{r3, r4, r5, r6, r7, pc}
   0x1fff1b88:	b530    	push	{r4, r5, lr}
   0x1fff1b8a:	2501    	movs	r5, #1
   0x1fff1b8c:	e008    	b.n	0x1fff1ba0
   0x1fff1b8e:	c910    	ldmia	r1!, {r4}
   0x1fff1b90:	c010    	stmia	r0!, {r4}
   0x1fff1b92:	07ac    	lsls	r4, r5, #30
   0x1fff1b94:	d001    	beq.n	0x1fff1b9a
   0x1fff1b96:	e002    	b.n	0x1fff1b9e
   0x1fff1b98:	1c64    	adds	r4, r4, #1
   0x1fff1b9a:	4294    	cmp	r4, r2
   0x1fff1b9c:	d3fc    	bcc.n	0x1fff1b98
   0x1fff1b9e:	1c6d    	adds	r5, r5, #1
   0x1fff1ba0:	429d    	cmp	r5, r3
   0x1fff1ba2:	d9f4    	bls.n	0x1fff1b8e
   0x1fff1ba4:	bd30    	pop	{r4, r5, pc}
   0x1fff1ba6:	b500    	push	{lr}
   0x1fff1ba8:	4a20    	ldr	r2, [pc, #128]	@ (0x1fff1c2c)
   0x1fff1baa:	6853    	ldr	r3, [r2, #4]
   0x1fff1bac:	2205    	movs	r2, #5
   0x1fff1bae:	439a    	bics	r2, r3
   0x1fff1bb0:	d001    	beq.n	0x1fff1bb6
   0x1fff1bb2:	200b    	movs	r0, #11
   0x1fff1bb4:	bd00    	pop	{pc}
   0x1fff1bb6:	2340    	movs	r3, #64	@ 0x40
   0x1fff1bb8:	2204    	movs	r2, #4
   0x1fff1bba:	f7ff ffe5	bl	0x1fff1b88
   0x1fff1bbe:	2000    	movs	r0, #0
   0x1fff1bc0:	bd00    	pop	{pc}
   0x1fff1bc2:	b5f0    	push	{r4, r5, r6, r7, lr}
   0x1fff1bc4:	b085    	sub	sp, #20
   0x1fff1bc6:	4607    	mov	r7, r0
   0x1fff1bc8:	6840    	ldr	r0, [r0, #4]
   0x1fff1bca:	9002    	str	r0, [sp, #8]
   0x1fff1bcc:	68b8    	ldr	r0, [r7, #8]
   0x1fff1bce:	9001    	str	r0, [sp, #4]
   0x1fff1bd0:	68f8    	ldr	r0, [r7, #12]
   0x1fff1bd2:	460d    	mov	r5, r1
   0x1fff1bd4:	2300    	movs	r3, #0
   0x1fff1bd6:	9003    	str	r0, [sp, #12]
   0x1fff1bd8:	2265    	movs	r2, #101	@ 0x65
   0x1fff1bda:	a903    	add	r1, sp, #12
   0x1fff1bdc:	4618    	mov	r0, r3
   0x1fff1bde:	f7fe fd32	bl	0x1fff0646
   0x1fff1be2:	6028    	str	r0, [r5, #0]
   0x1fff1be4:	2800    	cmp	r0, #0
   0x1fff1be6:	d17b    	bne.n	0x1fff1ce0
   0x1fff1be8:	2268    	movs	r2, #104	@ 0x68
   0x1fff1bea:	a902    	add	r1, sp, #8
   0x1fff1bec:	9b03    	ldr	r3, [sp, #12]
   0x1fff1bee:	f7fe fd2a	bl	0x1fff0646
   0x1fff1bf2:	6028    	str	r0, [r5, #0]
   0x1fff1bf4:	2800    	cmp	r0, #0
   0x1fff1bf6:	d173    	bne.n	0x1fff1ce0
   0x1fff1bf8:	2267    	movs	r2, #103	@ 0x67
   0x1fff1bfa:	a901    	add	r1, sp, #4
   0x1fff1bfc:	9b03    	ldr	r3, [sp, #12]
   0x1fff1bfe:	f7fe fd22	bl	0x1fff0646
   0x1fff1c02:	6028    	str	r0, [r5, #0]
   0x1fff1c04:	2800    	cmp	r0, #0
   0x1fff1c06:	d16b    	bne.n	0x1fff1ce0
   0x1fff1c08:	9004    	str	r0, [sp, #16]
   0x1fff1c0a:	6938    	ldr	r0, [r7, #16]
   0x1fff1c0c:	f7ff fe96	bl	0x1fff193c
   0x1fff1c10:	2101    	movs	r1, #1
   0x1fff1c12:	9802    	ldr	r0, [sp, #8]
   0x1fff1c14:	0449    	lsls	r1, r1, #17
   0x1fff1c16:	1840    	adds	r0, r0, r1
   0x1fff1c18:	4e04    	ldr	r6, [pc, #16]	@ (0x1fff1c2c)
   0x1fff1c1a:	9002    	str	r0, [sp, #8]
   0x1fff1c1c:	6830    	ldr	r0, [r6, #0]
   0x1fff1c1e:	2140    	movs	r1, #64	@ 0x40
   0x1fff1c20:	4308    	orrs	r0, r1
   0x1fff1c22:	6030    	str	r0, [r6, #0]
   0x1fff1c24:	2400    	movs	r4, #0
   0x1fff1c26:	0188    	lsls	r0, r1, #6
   0x1fff1c28:	e029    	b.n	0x1fff1c7e
   0x1fff1c2a:	0000    	movs	r0, r0
   0x1fff1c2c:	c000    	stmia	r0!, {}
   0x1fff1c2e:	4003    	ands	r3, r0
   0x1fff1c30:	043c    	lsls	r4, r7, #16
   0x1fff1c32:	0000    	movs	r0, r0
   0x1fff1c34:	8087    	strh	r7, [r0, #4]
   0x1fff1c36:	0001    	movs	r1, r0
   0x1fff1c38:	0438    	lsls	r0, r7, #16
   0x1fff1c3a:	0000    	movs	r0, r0
   0x1fff1c3c:	1388    	asrs	r0, r1, #14
   0x1fff1c3e:	0000    	movs	r0, r0
   0x1fff1c40:	8140    	strh	r0, [r0, #10]
   0x1fff1c42:	4004    	ands	r4, r0
   0x1fff1c44:	5678    	ldrsb	r0, [r7, r1]
   0x1fff1c46:	1234    	asrs	r4, r6, #8
   0x1fff1c48:	83c0    	strh	r0, [r0, #30]
   0x1fff1c4a:	4004    	ands	r4, r0
   0x1fff1c4c:	8085    	strh	r5, [r0, #4]
   0x1fff1c4e:	0009    	movs	r1, r1
   0x1fff1c50:	cfc0    	ldmia	r7, {r6, r7}
   0x1fff1c52:	4003    	ands	r3, r0
   0x1fff1c54:	1081    	asrs	r1, r0, #2
   0x1fff1c56:	0009    	movs	r1, r1
   0x1fff1c58:	1081    	asrs	r1, r0, #2
   0x1fff1c5a:	0001    	movs	r1, r0
   0x1fff1c5c:	0323    	lsls	r3, r4, #12
   0x1fff1c5e:	687a    	ldr	r2, [r7, #4]
   0x1fff1c60:	181b    	adds	r3, r3, r0
   0x1fff1c62:	429a    	cmp	r2, r3
   0x1fff1c64:	d20a    	bcs.n	0x1fff1c7c
   0x1fff1c66:	68fb    	ldr	r3, [r7, #12]
   0x1fff1c68:	18d2    	adds	r2, r2, r3
   0x1fff1c6a:	0323    	lsls	r3, r4, #12
   0x1fff1c6c:	1818    	adds	r0, r3, r0
   0x1fff1c6e:	4282    	cmp	r2, r0
   0x1fff1c70:	d801    	bhi.n	0x1fff1c76
   0x1fff1c72:	9404    	str	r4, [sp, #16]
   0x1fff1c74:	e007    	b.n	0x1fff1c86
   0x1fff1c76:	1c60    	adds	r0, r4, #1
   0x1fff1c78:	9004    	str	r0, [sp, #16]
   0x1fff1c7a:	e004    	b.n	0x1fff1c86
   0x1fff1c7c:	1c64    	adds	r4, r4, #1
   0x1fff1c7e:	4a45    	ldr	r2, [pc, #276]	@ (0x1fff1d94)
   0x1fff1c80:	78d2    	ldrb	r2, [r2, #3]
   0x1fff1c82:	42a2    	cmp	r2, r4
   0x1fff1c84:	d2ea    	bcs.n	0x1fff1c5c
   0x1fff1c86:	6830    	ldr	r0, [r6, #0]
   0x1fff1c88:	2140    	movs	r1, #64	@ 0x40
   0x1fff1c8a:	4388    	bics	r0, r1
   0x1fff1c8c:	6030    	str	r0, [r6, #0]
   0x1fff1c8e:	4620    	mov	r0, r4
   0x1fff1c90:	9904    	ldr	r1, [sp, #16]
   0x1fff1c92:	f7ff fe64	bl	0x1fff195e
   0x1fff1c96:	6028    	str	r0, [r5, #0]
   0x1fff1c98:	2800    	cmp	r0, #0
   0x1fff1c9a:	d121    	bne.n	0x1fff1ce0
   0x1fff1c9c:	6830    	ldr	r0, [r6, #0]
   0x1fff1c9e:	2140    	movs	r1, #64	@ 0x40
   0x1fff1ca0:	4308    	orrs	r0, r1
   0x1fff1ca2:	6030    	str	r0, [r6, #0]
   0x1fff1ca4:	483b    	ldr	r0, [pc, #236]	@ (0x1fff1d94)
   0x1fff1ca6:	7801    	ldrb	r1, [r0, #0]
   0x1fff1ca8:	6938    	ldr	r0, [r7, #16]
   0x1fff1caa:	f002 f90d	bl	0x1fff3ec8
   0x1fff1cae:	61f0    	str	r0, [r6, #28]
   0x1fff1cb0:	4838    	ldr	r0, [pc, #224]	@ (0x1fff1d94)
   0x1fff1cb2:	6939    	ldr	r1, [r7, #16]
   0x1fff1cb4:	7840    	ldrb	r0, [r0, #1]
   0x1fff1cb6:	4348    	muls	r0, r1
   0x1fff1cb8:	0a47    	lsrs	r7, r0, #9
   0x1fff1cba:	1cff    	adds	r7, r7, #3
   0x1fff1cbc:	2001    	movs	r0, #1
   0x1fff1cbe:	03c0    	lsls	r0, r0, #15
   0x1fff1cc0:	4307    	orrs	r7, r0
   0x1fff1cc2:	6830    	ldr	r0, [r6, #0]
   0x1fff1cc4:	2140    	movs	r1, #64	@ 0x40
   0x1fff1cc6:	4388    	bics	r0, r1
   0x1fff1cc8:	6030    	str	r0, [r6, #0]
   0x1fff1cca:	4933    	ldr	r1, [pc, #204]	@ (0x1fff1d98)
   0x1fff1ccc:	6a08    	ldr	r0, [r1, #32]
   0x1fff1cce:	4a34    	ldr	r2, [pc, #208]	@ (0x1fff1da0)
   0x1fff1cd0:	4684    	mov	r12, r0
   0x1fff1cd2:	4832    	ldr	r0, [pc, #200]	@ (0x1fff1d9c)
   0x1fff1cd4:	6110    	str	r0, [r2, #16]
   0x1fff1cd6:	2000    	movs	r0, #0
   0x1fff1cd8:	6208    	str	r0, [r1, #32]
   0x1fff1cda:	6110    	str	r0, [r2, #16]
   0x1fff1cdc:	9803    	ldr	r0, [sp, #12]
   0x1fff1cde:	e02b    	b.n	0x1fff1d38
   0x1fff1ce0:	e010    	b.n	0x1fff1d04
   0x1fff1ce2:	2300    	movs	r3, #0
   0x1fff1ce4:	4630    	mov	r0, r6
   0x1fff1ce6:	461a    	mov	r2, r3
   0x1fff1ce8:	492e    	ldr	r1, [pc, #184]	@ (0x1fff1da4)
   0x1fff1cea:	9600    	str	r6, [sp, #0]
   0x1fff1cec:	f7ff fde4	bl	0x1fff18b8
   0x1fff1cf0:	9901    	ldr	r1, [sp, #4]
   0x1fff1cf2:	9802    	ldr	r0, [sp, #8]
   0x1fff1cf4:	f7ff ff57	bl	0x1fff1ba6
   0x1fff1cf8:	2800    	cmp	r0, #0
   0x1fff1cfa:	d004    	beq.n	0x1fff1d06
   0x1fff1cfc:	200b    	movs	r0, #11
   0x1fff1cfe:	6028    	str	r0, [r5, #0]
   0x1fff1d00:	2000    	movs	r0, #0
   0x1fff1d02:	61f0    	str	r0, [r6, #28]
   0x1fff1d04:	e6ce    	b.n	0x1fff1aa4
   0x1fff1d06:	4928    	ldr	r1, [pc, #160]	@ (0x1fff1da8)
   0x1fff1d08:	2007    	movs	r0, #7
   0x1fff1d0a:	6288    	str	r0, [r1, #40]	@ 0x28
   0x1fff1d0c:	4630    	mov	r0, r6
   0x1fff1d0e:	60b7    	str	r7, [r6, #8]
   0x1fff1d10:	4925    	ldr	r1, [pc, #148]	@ (0x1fff1da8)
   0x1fff1d12:	2300    	movs	r3, #0
   0x1fff1d14:	3120    	adds	r1, #32
   0x1fff1d16:	9100    	str	r1, [sp, #0]
   0x1fff1d18:	461a    	mov	r2, r3
   0x1fff1d1a:	4924    	ldr	r1, [pc, #144]	@ (0x1fff1dac)
   0x1fff1d1c:	f7ff fdcc	bl	0x1fff18b8
   0x1fff1d20:	9802    	ldr	r0, [sp, #8]
   0x1fff1d22:	30ff    	adds	r0, #255	@ 0xff
   0x1fff1d24:	3001    	adds	r0, #1
   0x1fff1d26:	9002    	str	r0, [sp, #8]
   0x1fff1d28:	9801    	ldr	r0, [sp, #4]
   0x1fff1d2a:	30ff    	adds	r0, #255	@ 0xff
   0x1fff1d2c:	3001    	adds	r0, #1
   0x1fff1d2e:	9001    	str	r0, [sp, #4]
   0x1fff1d30:	9803    	ldr	r0, [sp, #12]
   0x1fff1d32:	38ff    	subs	r0, #255	@ 0xff
   0x1fff1d34:	3801    	subs	r0, #1
   0x1fff1d36:	9003    	str	r0, [sp, #12]
   0x1fff1d38:	2800    	cmp	r0, #0
   0x1fff1d3a:	d1d2    	bne.n	0x1fff1ce2
   0x1fff1d3c:	4818    	ldr	r0, [pc, #96]	@ (0x1fff1da0)
   0x1fff1d3e:	4917    	ldr	r1, [pc, #92]	@ (0x1fff1d9c)
   0x1fff1d40:	6101    	str	r1, [r0, #16]
   0x1fff1d42:	4a15    	ldr	r2, [pc, #84]	@ (0x1fff1d98)
   0x1fff1d44:	4661    	mov	r1, r12
   0x1fff1d46:	6211    	str	r1, [r2, #32]
   0x1fff1d48:	2500    	movs	r5, #0
   0x1fff1d4a:	6105    	str	r5, [r0, #16]
   0x1fff1d4c:	1e6a    	subs	r2, r5, #1
   0x1fff1d4e:	4620    	mov	r0, r4
   0x1fff1d50:	9904    	ldr	r1, [sp, #16]
   0x1fff1d52:	f7ff fdbf	bl	0x1fff18d4
   0x1fff1d56:	61f5    	str	r5, [r6, #28]
   0x1fff1d58:	e6a4    	b.n	0x1fff1aa4
   0x1fff1d5a:	b570    	push	{r4, r5, r6, lr}
   0x1fff1d5c:	460e    	mov	r6, r1
   0x1fff1d5e:	4604    	mov	r4, r0
   0x1fff1d60:	6881    	ldr	r1, [r0, #8]
   0x1fff1d62:	6840    	ldr	r0, [r0, #4]
   0x1fff1d64:	f7ff fd64	bl	0x1fff1830
   0x1fff1d68:	6030    	str	r0, [r6, #0]
   0x1fff1d6a:	2800    	cmp	r0, #0
   0x1fff1d6c:	d110    	bne.n	0x1fff1d90
   0x1fff1d6e:	4d10    	ldr	r5, [pc, #64]	@ (0x1fff1db0)
   0x1fff1d70:	69e8    	ldr	r0, [r5, #28]
   0x1fff1d72:	2800    	cmp	r0, #0
   0x1fff1d74:	d101    	bne.n	0x1fff1d7a
   0x1fff1d76:	2040    	movs	r0, #64	@ 0x40
   0x1fff1d78:	61e8    	str	r0, [r5, #28]
   0x1fff1d7a:	2200    	movs	r2, #0
   0x1fff1d7c:	68a1    	ldr	r1, [r4, #8]
   0x1fff1d7e:	6860    	ldr	r0, [r4, #4]
   0x1fff1d80:	f7ff fda8	bl	0x1fff18d4
   0x1fff1d84:	6030    	str	r0, [r6, #0]
   0x1fff1d86:	69e8    	ldr	r0, [r5, #28]
   0x1fff1d88:	2840    	cmp	r0, #64	@ 0x40
   0x1fff1d8a:	d101    	bne.n	0x1fff1d90
   0x1fff1d8c:	2000    	movs	r0, #0
   0x1fff1d8e:	61e8    	str	r0, [r5, #28]
   0x1fff1d90:	bd70    	pop	{r4, r5, r6, pc}
   0x1fff1d92:	0000    	movs	r0, r0
   0x1fff1d94:	043c    	lsls	r4, r7, #16
   0x1fff1d96:	0000    	movs	r0, r0
   0x1fff1d98:	8140    	strh	r0, [r0, #10]
   0x1fff1d9a:	4004    	ands	r4, r0
   0x1fff1d9c:	5678    	ldrsb	r0, [r7, r1]
   0x1fff1d9e:	1234    	asrs	r4, r6, #8
   0x1fff1da0:	83c0    	strh	r0, [r0, #30]
   0x1fff1da2:	4004    	ands	r4, r0
   0x1fff1da4:	0007    	movs	r7, r0
   0x1fff1da6:	0001    	movs	r1, r0
   0x1fff1da8:	cfc0    	ldmia	r7, {r6, r7}
   0x1fff1daa:	4003    	ands	r3, r0
   0x1fff1dac:	1083    	asrs	r3, r0, #2
   0x1fff1dae:	0001    	movs	r1, r0
   0x1fff1db0:	c000    	stmia	r0!, {}
   0x1fff1db2:	4003    	ands	r3, r0
   0x1fff1db4:	b5f7    	push	{r0, r1, r2, r4, r5, r6, r7, lr}
   0x1fff1db6:	b082    	sub	sp, #8
   0x1fff1db8:	6848    	ldr	r0, [r1, #4]
   0x1fff1dba:	9000    	str	r0, [sp, #0]
   0x1fff1dbc:	68cd    	ldr	r5, [r1, #12]
   0x1fff1dbe:	688f    	ldr	r7, [r1, #8]
   0x1fff1dc0:	460c    	mov	r4, r1
   0x1fff1dc2:	4616    	mov	r6, r2
   0x1fff1dc4:	462a    	mov	r2, r5
   0x1fff1dc6:	4639    	mov	r1, r7
   0x1fff1dc8:	f7fe fcb5	bl	0x1fff0736
   0x1fff1dcc:	6030    	str	r0, [r6, #0]
   0x1fff1dce:	2800    	cmp	r0, #0
   0x1fff1dd0:	d10c    	bne.n	0x1fff1dec
   0x1fff1dd2:	2d00    	cmp	r5, #0
   0x1fff1dd4:	d00a    	beq.n	0x1fff1dec
   0x1fff1dd6:	6920    	ldr	r0, [r4, #16]
   0x1fff1dd8:	f7fe fcdc	bl	0x1fff0794
   0x1fff1ddc:	9802    	ldr	r0, [sp, #8]
   0x1fff1dde:	462a    	mov	r2, r5
   0x1fff1de0:	2800    	cmp	r0, #0
   0x1fff1de2:	9800    	ldr	r0, [sp, #0]
   0x1fff1de4:	4639    	mov	r1, r7
   0x1fff1de6:	d003    	beq.n	0x1fff1df0
   0x1fff1de8:	f7fe fd57	bl	0x1fff089a
   0x1fff1dec:	b005    	add	sp, #20
   0x1fff1dee:	bdf0    	pop	{r4, r5, r6, r7, pc}
   0x1fff1df0:	f7fe fd96	bl	0x1fff0920
   0x1fff1df4:	e7fa    	b.n	0x1fff1dec
   0x1fff1df6:	b510    	push	{r4, lr}
   0x1fff1df8:	4922    	ldr	r1, [pc, #136]	@ (0x1fff1e84)
   0x1fff1dfa:	2000    	movs	r0, #0
   0x1fff1dfc:	6008    	str	r0, [r1, #0]
   0x1fff1dfe:	f7fe faea	bl	0x1fff03d6
   0x1fff1e02:	bd10    	pop	{r4, pc}
   0x1fff1e04:	b5f8    	push	{r3, r4, r5, r6, r7, lr}
   0x1fff1e06:	460d    	mov	r5, r1
   0x1fff1e08:	4601    	mov	r1, r0
   0x1fff1e0a:	4604    	mov	r4, r0
   0x1fff1e0c:	2300    	movs	r3, #0
   0x1fff1e0e:	2264    	movs	r2, #100	@ 0x64
   0x1fff1e10:	310c    	adds	r1, #12
   0x1fff1e12:	4618    	mov	r0, r3
   0x1fff1e14:	f7fe fc17	bl	0x1fff0646
   0x1fff1e18:	6028    	str	r0, [r5, #0]
   0x1fff1e1a:	2800    	cmp	r0, #0
   0x1fff1e1c:	d128    	bne.n	0x1fff1e70
   0x1fff1e1e:	2266    	movs	r2, #102	@ 0x66
   0x1fff1e20:	1d21    	adds	r1, r4, #4
   0x1fff1e22:	68e3    	ldr	r3, [r4, #12]
   0x1fff1e24:	f7fe fc0f	bl	0x1fff0646
   0x1fff1e28:	6028    	str	r0, [r5, #0]
   0x1fff1e2a:	2800    	cmp	r0, #0
   0x1fff1e2c:	d120    	bne.n	0x1fff1e70
   0x1fff1e2e:	4621    	mov	r1, r4
   0x1fff1e30:	2266    	movs	r2, #102	@ 0x66
   0x1fff1e32:	3108    	adds	r1, #8
   0x1fff1e34:	68e3    	ldr	r3, [r4, #12]
   0x1fff1e36:	f7fe fc06	bl	0x1fff0646
   0x1fff1e3a:	6028    	str	r0, [r5, #0]
   0x1fff1e3c:	2800    	cmp	r0, #0
   0x1fff1e3e:	d117    	bne.n	0x1fff1e70
   0x1fff1e40:	2301    	movs	r3, #1
   0x1fff1e42:	6862    	ldr	r2, [r4, #4]
   0x1fff1e44:	045b    	lsls	r3, r3, #17
   0x1fff1e46:	429a    	cmp	r2, r3
   0x1fff1e48:	d200    	bcs.n	0x1fff1e4c
   0x1fff1e4a:	18d2    	adds	r2, r2, r3
   0x1fff1e4c:	68a0    	ldr	r0, [r4, #8]
   0x1fff1e4e:	4298    	cmp	r0, r3
   0x1fff1e50:	d200    	bcs.n	0x1fff1e54
   0x1fff1e52:	18c0    	adds	r0, r0, r3
   0x1fff1e54:	68e1    	ldr	r1, [r4, #12]
   0x1fff1e56:	e00f    	b.n	0x1fff1e78
   0x1fff1e58:	6806    	ldr	r6, [r0, #0]
   0x1fff1e5a:	6817    	ldr	r7, [r2, #0]
   0x1fff1e5c:	42be    	cmp	r6, r7
   0x1fff1e5e:	d008    	beq.n	0x1fff1e72
   0x1fff1e60:	200a    	movs	r0, #10
   0x1fff1e62:	6028    	str	r0, [r5, #0]
   0x1fff1e64:	6860    	ldr	r0, [r4, #4]
   0x1fff1e66:	4298    	cmp	r0, r3
   0x1fff1e68:	d200    	bcs.n	0x1fff1e6c
   0x1fff1e6a:	1ad2    	subs	r2, r2, r3
   0x1fff1e6c:	1a10    	subs	r0, r2, r0
   0x1fff1e6e:	6068    	str	r0, [r5, #4]
   0x1fff1e70:	bdf8    	pop	{r3, r4, r5, r6, r7, pc}
   0x1fff1e72:	1d00    	adds	r0, r0, #4
   0x1fff1e74:	1d12    	adds	r2, r2, #4
   0x1fff1e76:	1f09    	subs	r1, r1, #4
   0x1fff1e78:	2900    	cmp	r1, #0
   0x1fff1e7a:	d1ed    	bne.n	0x1fff1e58
   0x1fff1e7c:	2000    	movs	r0, #0
   0x1fff1e7e:	6028    	str	r0, [r5, #0]
   0x1fff1e80:	bdf8    	pop	{r3, r4, r5, r6, r7, pc}
   0x1fff1e82:	0000    	movs	r0, r0
   0x1fff1e84:	8000    	strh	r0, [r0, #0]
   0x1fff1e86:	4004    	ands	r4, r0
   0x1fff1e88:	7953    	ldrb	r3, [r2, #5]
   0x1fff1e8a:	636e    	str	r6, [r5, #52]	@ 0x34
   0x1fff1e8c:	7268    	strb	r0, [r5, #9]
   0x1fff1e8e:	6e6f    	ldr	r7, [r5, #100]	@ 0x64
   0x1fff1e90:	7a69    	ldrb	r1, [r5, #9]
   0x1fff1e92:	6465    	str	r5, [r4, #68]	@ 0x44
   0x1fff1e94:	ff00 ffff	vmaxnm.f32	<illegal reg q7.5>, q8, <illegal reg q15.5>
   0x1fff1e98:	0971    	lsrs	r1, r6, #5
   0x1fff1e9a:	1fff    	subs	r7, r7, #7
   0x1fff1e9c:	0bb1    	lsrs	r1, r6, #14
   0x1fff1e9e:	1fff    	subs	r7, r7, #7
   0x1fff1ea0:	0b95    	lsrs	r5, r2, #14
   0x1fff1ea2:	1fff    	subs	r7, r7, #7
   0x1fff1ea4:	0bab    	lsrs	r3, r5, #14
   0x1fff1ea6:	1fff    	subs	r7, r7, #7
   0x1fff1ea8:	15b9    	asrs	r1, r7, #22
   0x1fff1eaa:	1fff    	subs	r7, r7, #7
   0x1fff1eac:	15bf    	asrs	r7, r7, #22
   0x1fff1eae:	1fff    	subs	r7, r7, #7
   0x1fff1eb0:	1599    	asrs	r1, r3, #22
   0x1fff1eb2:	1fff    	subs	r7, r7, #7
   0x1fff1eb4:	15a9    	asrs	r1, r5, #22
   0x1fff1eb6:	1fff    	subs	r7, r7, #7
   0x1fff1eb8:	1f24    	subs	r4, r4, #4
   0x1fff1eba:	1fff    	subs	r7, r7, #7
   0x1fff1ebc:	ffff ffff			@ <UNDEFINED> instruction: 0xffffffff
   0x1fff1ec0:	ffff ffff			@ <UNDEFINED> instruction: 0xffffffff
   0x1fff1ec4:	1e98    	subs	r0, r3, #2
   0x1fff1ec6:	1fff    	subs	r7, r7, #7
   0x1fff1ec8:	1ea8    	subs	r0, r5, #2
   0x1fff1eca:	1fff    	subs	r7, r7, #7
   0x1fff1ecc:	ffff ffff			@ <UNDEFINED> instruction: 0xffffffff
   0x1fff1ed0:	29d4    	cmp	r1, #212	@ 0xd4
   0x1fff1ed2:	2000    	movs	r0, #0
   0x1fff1ed4:	2705    	movs	r7, #5
   0x1fff1ed6:	2000    	movs	r0, #0
   0x1fff1ed8:	29e4    	cmp	r1, #228	@ 0xe4
   0x1fff1eda:	2000    	movs	r0, #0
   0x1fff1edc:	2000    	movs	r0, #0
   0x1fff1ede:	0000    	movs	r0, r0
   0x1fff1ee0:	0000    	movs	r0, r0
   0x1fff1ee2:	0000    	movs	r0, r0
   0x1fff1ee4:	2010    	movs	r0, #16
   0x1fff1ee6:	0000    	movs	r0, r0
   0x1fff1ee8:	0010    	movs	r0, r2
   0x1fff1eea:	0000    	movs	r0, r0
   0x1fff1eec:	0010    	movs	r0, r2
   0x1fff1eee:	0000    	movs	r0, r0
   0x1fff1ef0:	0010    	movs	r0, r2
   0x1fff1ef2:	0000    	movs	r0, r0
   0x1fff1ef4:	2000    	movs	r0, #0
   0x1fff1ef6:	0004    	movs	r4, r0
   0x1fff1ef8:	0000    	movs	r0, r0
   0x1fff1efa:	0004    	movs	r4, r0
   0x1fff1efc:	2010    	movs	r0, #16
   0x1fff1efe:	0004    	movs	r4, r0
   0x1fff1f00:	0010    	movs	r0, r2
   0x1fff1f02:	0004    	movs	r4, r0
   0x1fff1f04:	0010    	movs	r0, r2
   0x1fff1f06:	0004    	movs	r4, r0
   0x1fff1f08:	0010    	movs	r0, r2
   0x1fff1f0a:	0004    	movs	r4, r0
   0x1fff1f0c:	0000    	movs	r0, r0
   0x1fff1f0e:	0000    	movs	r0, r0
   0x1fff1f10:	0000    	movs	r0, r0
   0x1fff1f12:	0000    	movs	r0, r0
   0x1fff1f14:	8000    	strh	r0, [r0, #0]
   0x1fff1f16:	c000    	stmia	r0!, {}
   0x1fff1f18:	0000    	movs	r0, r0
   0x1fff1f1a:	0000    	movs	r0, r0
   0x1fff1f1c:	0000    	movs	r0, r0
   0x1fff1f1e:	0000    	movs	r0, r0
   0x1fff1f20:	8000    	strh	r0, [r0, #0]
   0x1fff1f22:	c000    	stmia	r0!, {}
   0x1fff1f24:	1f80    	subs	r0, r0, #6
   0x1fff1f26:	1fff    	subs	r7, r7, #7
   0x1fff1f28:	1f50    	subs	r0, r2, #5
   0x1fff1f2a:	1fff    	subs	r7, r7, #7
   0x1fff1f2c:	1fdc    	subs	r4, r3, #7
   0x1fff1f2e:	1fff    	subs	r7, r7, #7
   0x1fff1f30:	1f70    	subs	r0, r6, #5
   0x1fff1f32:	1fff    	subs	r7, r7, #7
   0x1fff1f34:	1f78    	subs	r0, r7, #5
   0x1fff1f36:	1fff    	subs	r7, r7, #7
   0x1fff1f38:	1f44    	subs	r4, r0, #5
   0x1fff1f3a:	1fff    	subs	r7, r7, #7
   0x1fff1f3c:	0000    	movs	r0, r0
   0x1fff1f3e:	0000    	movs	r0, r0
   0x1fff1f40:	1101    	asrs	r1, r0, #4
   0x1fff1f42:	0111    	lsls	r1, r2, #4
   0x1fff1f44:	3d93    	subs	r5, #147	@ 0x93
   0x1fff1f46:	1fff    	subs	r7, r7, #7
   0x1fff1f48:	3d97    	subs	r5, #151	@ 0x97
   0x1fff1f4a:	1fff    	subs	r7, r7, #7
   0x1fff1f4c:	3ba9    	subs	r3, #169	@ 0xa9
   0x1fff1f4e:	1fff    	subs	r7, r7, #7
   0x1fff1f50:	2ab7    	cmp	r2, #183	@ 0xb7
   0x1fff1f52:	1fff    	subs	r7, r7, #7
   0x1fff1f54:	29d7    	cmp	r1, #215	@ 0xd7
   0x1fff1f56:	1fff    	subs	r7, r7, #7
   0x1fff1f58:	222f    	movs	r2, #47	@ 0x2f
   0x1fff1f5a:	1fff    	subs	r7, r7, #7
   0x1fff1f5c:	223f    	movs	r2, #63	@ 0x3f
   0x1fff1f5e:	1fff    	subs	r7, r7, #7
   0x1fff1f60:	226b    	movs	r2, #107	@ 0x6b
   0x1fff1f62:	1fff    	subs	r7, r7, #7
   0x1fff1f64:	228d    	movs	r2, #141	@ 0x8d
   0x1fff1f66:	1fff    	subs	r7, r7, #7
   0x1fff1f68:	229b    	movs	r2, #155	@ 0x9b
   0x1fff1f6a:	1fff    	subs	r7, r7, #7
   0x1fff1f6c:	21b9    	movs	r1, #185	@ 0xb9
   0x1fff1f6e:	1fff    	subs	r7, r7, #7
   0x1fff1f70:	3a21    	subs	r2, #33	@ 0x21
   0x1fff1f72:	1fff    	subs	r7, r7, #7
   0x1fff1f74:	3a2b    	subs	r2, #43	@ 0x2b
   0x1fff1f76:	1fff    	subs	r7, r7, #7
   0x1fff1f78:	2cf1    	cmp	r4, #241	@ 0xf1
   0x1fff1f7a:	1fff    	subs	r7, r7, #7
   0x1fff1f7c:	2cfd    	cmp	r4, #253	@ 0xfd
   0x1fff1f7e:	1fff    	subs	r7, r7, #7
   0x1fff1f80:	2e7f    	cmp	r6, #127	@ 0x7f
   0x1fff1f82:	1fff    	subs	r7, r7, #7
   0x1fff1f84:	351d    	adds	r5, #29
   0x1fff1f86:	1fff    	subs	r7, r7, #7
   0x1fff1f88:	2e93    	cmp	r6, #147	@ 0x93
   0x1fff1f8a:	1fff    	subs	r7, r7, #7
   0x1fff1f8c:	3655    	adds	r6, #85	@ 0x55
   0x1fff1f8e:	1fff    	subs	r7, r7, #7
   0x1fff1f90:	3449    	adds	r4, #73	@ 0x49
   0x1fff1f92:	1fff    	subs	r7, r7, #7
   0x1fff1f94:	2e7d    	cmp	r6, #125	@ 0x7d
   0x1fff1f96:	1fff    	subs	r7, r7, #7
   0x1fff1f98:	2ecb    	cmp	r6, #203	@ 0xcb
   0x1fff1f9a:	1fff    	subs	r7, r7, #7
   0x1fff1f9c:	2ee7    	cmp	r6, #231	@ 0xe7
   0x1fff1f9e:	1fff    	subs	r7, r7, #7
   0x1fff1fa0:	2f09    	cmp	r7, #9
   0x1fff1fa2:	1fff    	subs	r7, r7, #7
   0x1fff1fa4:	2f1f    	cmp	r7, #31
   0x1fff1fa6:	1fff    	subs	r7, r7, #7
   0x1fff1fa8:	2fa9    	cmp	r7, #169	@ 0xa9
   0x1fff1faa:	1fff    	subs	r7, r7, #7
   0x1fff1fac:	2fab    	cmp	r7, #171	@ 0xab
   0x1fff1fae:	1fff    	subs	r7, r7, #7
   0x1fff1fb0:	2feb    	cmp	r7, #235	@ 0xeb
   0x1fff1fb2:	1fff    	subs	r7, r7, #7
   0x1fff1fb4:	3019    	adds	r0, #25
   0x1fff1fb6:	1fff    	subs	r7, r7, #7
   0x1fff1fb8:	305f    	adds	r0, #95	@ 0x5f
   0x1fff1fba:	1fff    	subs	r7, r7, #7
   0x1fff1fbc:	30c1    	adds	r0, #193	@ 0xc1
   0x1fff1fbe:	1fff    	subs	r7, r7, #7
   0x1fff1fc0:	2f05    	cmp	r7, #5
   0x1fff1fc2:	1fff    	subs	r7, r7, #7
   0x1fff1fc4:	3277    	adds	r2, #119	@ 0x77
   0x1fff1fc6:	1fff    	subs	r7, r7, #7
   0x1fff1fc8:	3273    	adds	r2, #115	@ 0x73
   0x1fff1fca:	1fff    	subs	r7, r7, #7
   0x1fff1fcc:	321b    	adds	r2, #27
   0x1fff1fce:	1fff    	subs	r7, r7, #7
   0x1fff1fd0:	3387    	adds	r3, #135	@ 0x87
   0x1fff1fd2:	1fff    	subs	r7, r7, #7
   0x1fff1fd4:	2eaf    	cmp	r6, #175	@ 0xaf
   0x1fff1fd6:	1fff    	subs	r7, r7, #7
   0x1fff1fd8:	315f    	adds	r1, #95	@ 0x5f
   0x1fff1fda:	1fff    	subs	r7, r7, #7
   0x1fff1fdc:	145d    	asrs	r5, r3, #17
   0x1fff1fde:	1fff    	subs	r7, r7, #7
   0x1fff1fe0:	1461    	asrs	r1, r4, #17
   0x1fff1fe2:	1fff    	subs	r7, r7, #7
   0x1fff1fe4:	ffff ffff			@ <UNDEFINED> instruction: 0xffffffff
   0x1fff1fe8:	ffff ffff			@ <UNDEFINED> instruction: 0xffffffff
   0x1fff1fec:	ffff ffff			@ <UNDEFINED> instruction: 0xffffffff
   0x1fff1ff0:	b510    	push	{r4, lr}
   0x1fff1ff2:	f7ff fb93	bl	0x1fff171c
   0x1fff1ff6:	bd10    	pop	{r4, pc}
   0x1fff1ff8:	1eb8    	subs	r0, r7, #2
   0x1fff1ffa:	1fff    	subs	r7, r7, #7
   0x1fff1ffc:	4770    	bx	lr
   0x1fff1ffe:	e7fe    	b.n	0x1fff1ffe
   0x1fff2000:	e7fe    	b.n	0x1fff2000
   0x1fff2002:	e7fe    	b.n	0x1fff2002
   0x1fff2004:	e7fe    	b.n	0x1fff2004
   0x1fff2006:	4770    	bx	lr
   0x1fff2008:	4770    	bx	lr
   0x1fff200a:	4770    	bx	lr
   0x1fff200c:	4770    	bx	lr
   0x1fff200e:	2860    	cmp	r0, #96	@ 0x60
   0x1fff2010:	d002    	beq.n	0x1fff2018
   0x1fff2012:	3820    	subs	r0, #32
   0x1fff2014:	b2c0    	uxtb	r0, r0
   0x1fff2016:	4770    	bx	lr
   0x1fff2018:	2000    	movs	r0, #0
   0x1fff201a:	4770    	bx	lr
   0x1fff201c:	b5f0    	push	{r4, r5, r6, r7, lr}
   0x1fff201e:	4603    	mov	r3, r0
   0x1fff2020:	2600    	movs	r6, #0
   0x1fff2022:	4694    	mov	r12, r2
   0x1fff2024:	4635    	mov	r5, r6
   0x1fff2026:	7800    	ldrb	r0, [r0, #0]
   0x1fff2028:	f7ff fff1	bl	0x1fff200e
   0x1fff202c:	4604    	mov	r4, r0
   0x1fff202e:	1e40    	subs	r0, r0, #1
   0x1fff2030:	282c    	cmp	r0, #44	@ 0x2c
   0x1fff2032:	d84b    	bhi.n	0x1fff20cc
   0x1fff2034:	1c5b    	adds	r3, r3, #1
   0x1fff2036:	e047    	b.n	0x1fff20c8
   0x1fff2038:	2c03    	cmp	r4, #3
   0x1fff203a:	db25    	blt.n	0x1fff2088
   0x1fff203c:	7818    	ldrb	r0, [r3, #0]
   0x1fff203e:	f7ff ffe6	bl	0x1fff200e
   0x1fff2042:	0082    	lsls	r2, r0, #2
   0x1fff2044:	7858    	ldrb	r0, [r3, #1]
   0x1fff2046:	f7ff ffe2	bl	0x1fff200e
   0x1fff204a:	0900    	lsrs	r0, r0, #4
   0x1fff204c:	4302    	orrs	r2, r0
   0x1fff204e:	700a    	strb	r2, [r1, #0]
   0x1fff2050:	7858    	ldrb	r0, [r3, #1]
   0x1fff2052:	f7ff ffdc	bl	0x1fff200e
   0x1fff2056:	0102    	lsls	r2, r0, #4
   0x1fff2058:	7898    	ldrb	r0, [r3, #2]
   0x1fff205a:	f7ff ffd8	bl	0x1fff200e
   0x1fff205e:	0880    	lsrs	r0, r0, #2
   0x1fff2060:	4302    	orrs	r2, r0
   0x1fff2062:	704a    	strb	r2, [r1, #1]
   0x1fff2064:	7898    	ldrb	r0, [r3, #2]
   0x1fff2066:	f7ff ffd2	bl	0x1fff200e
   0x1fff206a:	0182    	lsls	r2, r0, #6
   0x1fff206c:	78d8    	ldrb	r0, [r3, #3]
   0x1fff206e:	f7ff ffce	bl	0x1fff200e
   0x1fff2072:	4302    	orrs	r2, r0
   0x1fff2074:	b2d0    	uxtb	r0, r2
   0x1fff2076:	7088    	strb	r0, [r1, #2]
   0x1fff2078:	780f    	ldrb	r7, [r1, #0]
   0x1fff207a:	784a    	ldrb	r2, [r1, #1]
   0x1fff207c:	1980    	adds	r0, r0, r6
   0x1fff207e:	18ba    	adds	r2, r7, r2
   0x1fff2080:	1ced    	adds	r5, r5, #3
   0x1fff2082:	1816    	adds	r6, r2, r0
   0x1fff2084:	1cc9    	adds	r1, r1, #3
   0x1fff2086:	e01d    	b.n	0x1fff20c4
   0x1fff2088:	2c01    	cmp	r4, #1
   0x1fff208a:	db0c    	blt.n	0x1fff20a6
   0x1fff208c:	7818    	ldrb	r0, [r3, #0]
   0x1fff208e:	f7ff ffbe	bl	0x1fff200e
   0x1fff2092:	0082    	lsls	r2, r0, #2
   0x1fff2094:	7858    	ldrb	r0, [r3, #1]
   0x1fff2096:	f7ff ffba	bl	0x1fff200e
   0x1fff209a:	0900    	lsrs	r0, r0, #4
   0x1fff209c:	4302    	orrs	r2, r0
   0x1fff209e:	b2d0    	uxtb	r0, r2
   0x1fff20a0:	1c6d    	adds	r5, r5, #1
   0x1fff20a2:	7008    	strb	r0, [r1, #0]
   0x1fff20a4:	1986    	adds	r6, r0, r6
   0x1fff20a6:	2c02    	cmp	r4, #2
   0x1fff20a8:	db0c    	blt.n	0x1fff20c4
   0x1fff20aa:	7858    	ldrb	r0, [r3, #1]
   0x1fff20ac:	f7ff ffaf	bl	0x1fff200e
   0x1fff20b0:	0102    	lsls	r2, r0, #4
   0x1fff20b2:	7898    	ldrb	r0, [r3, #2]
   0x1fff20b4:	f7ff ffab	bl	0x1fff200e
   0x1fff20b8:	0880    	lsrs	r0, r0, #2
   0x1fff20ba:	4302    	orrs	r2, r0
   0x1fff20bc:	b2d0    	uxtb	r0, r2
   0x1fff20be:	1c6d    	adds	r5, r5, #1
   0x1fff20c0:	7048    	strb	r0, [r1, #1]
   0x1fff20c2:	1986    	adds	r6, r0, r6
   0x1fff20c4:	1d1b    	adds	r3, r3, #4
   0x1fff20c6:	1ee4    	subs	r4, r4, #3
   0x1fff20c8:	2c00    	cmp	r4, #0
   0x1fff20ca:	dcb5    	bgt.n	0x1fff2038
   0x1fff20cc:	4660    	mov	r0, r12
   0x1fff20ce:	6005    	str	r5, [r0, #0]
   0x1fff20d0:	4630    	mov	r0, r6
   0x1fff20d2:	bdf0    	pop	{r4, r5, r6, r7, pc}
   0x1fff20d4:	b510    	push	{r4, lr}
   0x1fff20d6:	2200    	movs	r2, #0
   0x1fff20d8:	e002    	b.n	0x1fff20e0
   0x1fff20da:	2b00    	cmp	r3, #0
   0x1fff20dc:	d008    	beq.n	0x1fff20f0
   0x1fff20de:	1c52    	adds	r2, r2, #1
   0x1fff20e0:	5c83    	ldrb	r3, [r0, r2]
   0x1fff20e2:	5c8c    	ldrb	r4, [r1, r2]
   0x1fff20e4:	42a3    	cmp	r3, r4
   0x1fff20e6:	d0f8    	beq.n	0x1fff20da
   0x1fff20e8:	b2d8    	uxtb	r0, r3
   0x1fff20ea:	b2e1    	uxtb	r1, r4
   0x1fff20ec:	1a40    	subs	r0, r0, r1
   0x1fff20ee:	bd10    	pop	{r4, pc}
   0x1fff20f0:	2000    	movs	r0, #0
   0x1fff20f2:	bd10    	pop	{r4, pc}
   0x1fff20f4:	b5ff    	push	{r0, r1, r2, r3, r4, r5, r6, r7, lr}
   0x1fff20f6:	4605    	mov	r5, r0
   0x1fff20f8:	2000    	movs	r0, #0
   0x1fff20fa:	7829    	ldrb	r1, [r5, #0]
   0x1fff20fc:	469e    	mov	lr, r3
   0x1fff20fe:	9e09    	ldr	r6, [sp, #36]	@ 0x24
   0x1fff2100:	4603    	mov	r3, r0
   0x1fff2102:	4604    	mov	r4, r0
   0x1fff2104:	2900    	cmp	r1, #0
   0x1fff2106:	d003    	beq.n	0x1fff2110
   0x1fff2108:	2100    	movs	r1, #0
   0x1fff210a:	1eb6    	subs	r6, r6, #2
   0x1fff210c:	46b4    	mov	r12, r6
   0x1fff210e:	e01d    	b.n	0x1fff214c
   0x1fff2110:	2000    	movs	r0, #0
   0x1fff2112:	b004    	add	sp, #16
   0x1fff2114:	bdf0    	pop	{r4, r5, r6, r7, pc}
   0x1fff2116:	1c46    	adds	r6, r0, #1
   0x1fff2118:	4576    	cmp	r6, lr
   0x1fff211a:	dc1a    	bgt.n	0x1fff2152
   0x1fff211c:	5c6e    	ldrb	r6, [r5, r1]
   0x1fff211e:	2e20    	cmp	r6, #32
   0x1fff2120:	d007    	beq.n	0x1fff2132
   0x1fff2122:	4564    	cmp	r4, r12
   0x1fff2124:	da05    	bge.n	0x1fff2132
   0x1fff2126:	0087    	lsls	r7, r0, #2
   0x1fff2128:	59d7    	ldr	r7, [r2, r7]
   0x1fff212a:	54fe    	strb	r6, [r7, r3]
   0x1fff212c:	1c5b    	adds	r3, r3, #1
   0x1fff212e:	1c64    	adds	r4, r4, #1
   0x1fff2130:	e00b    	b.n	0x1fff214a
   0x1fff2132:	186e    	adds	r6, r5, r1
   0x1fff2134:	7876    	ldrb	r6, [r6, #1]
   0x1fff2136:	2e20    	cmp	r6, #32
   0x1fff2138:	d101    	bne.n	0x1fff213e
   0x1fff213a:	4564    	cmp	r4, r12
   0x1fff213c:	d105    	bne.n	0x1fff214a
   0x1fff213e:	0086    	lsls	r6, r0, #2
   0x1fff2140:	2400    	movs	r4, #0
   0x1fff2142:	5996    	ldr	r6, [r2, r6]
   0x1fff2144:	1c40    	adds	r0, r0, #1
   0x1fff2146:	54f4    	strb	r4, [r6, r3]
   0x1fff2148:	4623    	mov	r3, r4
   0x1fff214a:	1c49    	adds	r1, r1, #1
   0x1fff214c:	9e01    	ldr	r6, [sp, #4]
   0x1fff214e:	42b1    	cmp	r1, r6
   0x1fff2150:	dde1    	ble.n	0x1fff2116
   0x1fff2152:	1c40    	adds	r0, r0, #1
   0x1fff2154:	e7dd    	b.n	0x1fff2112
   0x1fff2156:	b530    	push	{r4, r5, lr}
   0x1fff2158:	2300    	movs	r3, #0
   0x1fff215a:	461a    	mov	r2, r3
   0x1fff215c:	e008    	b.n	0x1fff2170
   0x1fff215e:	4625    	mov	r5, r4
   0x1fff2160:	3d30    	subs	r5, #48	@ 0x30
   0x1fff2162:	2d09    	cmp	r5, #9
   0x1fff2164:	d80a    	bhi.n	0x1fff217c
   0x1fff2166:	250a    	movs	r5, #10
   0x1fff2168:	436b    	muls	r3, r5
   0x1fff216a:	3b30    	subs	r3, #48	@ 0x30
   0x1fff216c:	18e3    	adds	r3, r4, r3
   0x1fff216e:	1c52    	adds	r2, r2, #1
   0x1fff2170:	5c84    	ldrb	r4, [r0, r2]
   0x1fff2172:	2c00    	cmp	r4, #0
   0x1fff2174:	d1f3    	bne.n	0x1fff215e
   0x1fff2176:	2000    	movs	r0, #0
   0x1fff2178:	600b    	str	r3, [r1, #0]
   0x1fff217a:	bd30    	pop	{r4, r5, pc}
   0x1fff217c:	2001    	movs	r0, #1
   0x1fff217e:	bd30    	pop	{r4, r5, pc}
   0x1fff2180:	b570    	push	{r4, r5, r6, lr}
   0x1fff2182:	460d    	mov	r5, r1
   0x1fff2184:	2100    	movs	r1, #0
   0x1fff2186:	1e54    	subs	r4, r2, #1
   0x1fff2188:	5529    	strb	r1, [r5, r4]
   0x1fff218a:	2800    	cmp	r0, #0
   0x1fff218c:	d10d    	bne.n	0x1fff21aa
   0x1fff218e:	2030    	movs	r0, #48	@ 0x30
   0x1fff2190:	1e64    	subs	r4, r4, #1
   0x1fff2192:	5528    	strb	r0, [r5, r4]
   0x1fff2194:	e00d    	b.n	0x1fff21b2
   0x1fff2196:	1e64    	subs	r4, r4, #1
   0x1fff2198:	210a    	movs	r1, #10
   0x1fff219a:	f001 fe95	bl	0x1fff3ec8
   0x1fff219e:	2909    	cmp	r1, #9
   0x1fff21a0:	d801    	bhi.n	0x1fff21a6
   0x1fff21a2:	3130    	adds	r1, #48	@ 0x30
   0x1fff21a4:	e000    	b.n	0x1fff21a8
   0x1fff21a6:	3137    	adds	r1, #55	@ 0x37
   0x1fff21a8:	5529    	strb	r1, [r5, r4]
   0x1fff21aa:	2c00    	cmp	r4, #0
   0x1fff21ac:	d001    	beq.n	0x1fff21b2
   0x1fff21ae:	2800    	cmp	r0, #0
   0x1fff21b0:	d1f1    	bne.n	0x1fff2196
   0x1fff21b2:	1928    	adds	r0, r5, r4
   0x1fff21b4:	bd70    	pop	{r4, r5, r6, pc}
   0x1fff21b6:	ffff b510	vsli.32	d27, d0, #31
   0x1fff21ba:	4604    	mov	r4, r0
   0x1fff21bc:	2180    	movs	r1, #128	@ 0x80
   0x1fff21be:	f000 ff4e	bl	0x1fff305e
   0x1fff21c2:	2000    	movs	r0, #0
   0x1fff21c4:	34ff    	adds	r4, #255	@ 0xff
   0x1fff21c6:	3421    	adds	r4, #33	@ 0x21
   0x1fff21c8:	8020    	strh	r0, [r4, #0]
   0x1fff21ca:	bd10    	pop	{r4, pc}
   0x1fff21cc:	b5f3    	push	{r0, r1, r4, r5, r6, r7, lr}
   0x1fff21ce:	2400    	movs	r4, #0
   0x1fff21d0:	4607    	mov	r7, r0
   0x1fff21d2:	b081    	sub	sp, #4
   0x1fff21d4:	4606    	mov	r6, r0
   0x1fff21d6:	4dfb    	ldr	r5, [pc, #1004]	@ (0x1fff25c4)
   0x1fff21d8:	37e0    	adds	r7, #224	@ 0xe0
   0x1fff21da:	e015    	b.n	0x1fff2208
   0x1fff21dc:	00a0    	lsls	r0, r4, #2
   0x1fff21de:	1980    	adds	r0, r0, r6
   0x1fff21e0:	21a8    	movs	r1, #168	@ 0xa8
   0x1fff21e2:	580b    	ldr	r3, [r1, r0]
   0x1fff21e4:	2b00    	cmp	r3, #0
   0x1fff21e6:	d00e    	beq.n	0x1fff2206
   0x1fff21e8:	30c0    	adds	r0, #192	@ 0xc0
   0x1fff21ea:	6881    	ldr	r1, [r0, #8]
   0x1fff21ec:	4630    	mov	r0, r6
   0x1fff21ee:	9a02    	ldr	r2, [sp, #8]
   0x1fff21f0:	4798    	blx	r3
   0x1fff21f2:	49f4    	ldr	r1, [pc, #976]	@ (0x1fff25c4)
   0x1fff21f4:	4605    	mov	r5, r0
   0x1fff21f6:	4288    	cmp	r0, r1
   0x1fff21f8:	d005    	beq.n	0x1fff2206
   0x1fff21fa:	2d00    	cmp	r5, #0
   0x1fff21fc:	d007    	beq.n	0x1fff220e
   0x1fff21fe:	4630    	mov	r0, r6
   0x1fff2200:	f7ff ffda	bl	0x1fff21b8
   0x1fff2204:	e003    	b.n	0x1fff220e
   0x1fff2206:	1c64    	adds	r4, r4, #1
   0x1fff2208:	7a38    	ldrb	r0, [r7, #8]
   0x1fff220a:	42a0    	cmp	r0, r4
   0x1fff220c:	d8e6    	bhi.n	0x1fff21dc
   0x1fff220e:	4628    	mov	r0, r5
   0x1fff2210:	bdfe    	pop	{r1, r2, r3, r4, r5, r6, r7, pc}
   0x1fff2212:	4601    	mov	r1, r0
   0x1fff2214:	2201    	movs	r2, #1
   0x1fff2216:	31e0    	adds	r1, #224	@ 0xe0
   0x1fff2218:	81ca    	strh	r2, [r1, #14]
   0x1fff221a:	2200    	movs	r2, #0
   0x1fff221c:	730a    	strb	r2, [r1, #12]
   0x1fff221e:	734a    	strb	r2, [r1, #13]
   0x1fff2220:	3120    	adds	r1, #32
   0x1fff2222:	4be9    	ldr	r3, [pc, #932]	@ (0x1fff25c8)
   0x1fff2224:	608a    	str	r2, [r1, #8]
   0x1fff2226:	604b    	str	r3, [r1, #4]
   0x1fff2228:	60ca    	str	r2, [r1, #12]
   0x1fff222a:	210e    	movs	r1, #14
   0x1fff222c:	e7ce    	b.n	0x1fff21cc
   0x1fff222e:	4602    	mov	r2, r0
   0x1fff2230:	b510    	push	{r4, lr}
   0x1fff2232:	32ff    	adds	r2, #255	@ 0xff
   0x1fff2234:	3265    	adds	r2, #101	@ 0x65
   0x1fff2236:	2100    	movs	r1, #0
   0x1fff2238:	f000 ffef	bl	0x1fff321a
   0x1fff223c:	bd10    	pop	{r4, pc}
   0x1fff223e:	b570    	push	{r4, r5, r6, lr}
   0x1fff2240:	4604    	mov	r4, r0
   0x1fff2242:	34ff    	adds	r4, #255	@ 0xff
   0x1fff2244:	3421    	adds	r4, #33	@ 0x21
   0x1fff2246:	8823    	ldrh	r3, [r4, #0]
   0x1fff2248:	2b40    	cmp	r3, #64	@ 0x40
   0x1fff224a:	d900    	bls.n	0x1fff224e
   0x1fff224c:	2340    	movs	r3, #64	@ 0x40
   0x1fff224e:	1dc5    	adds	r5, r0, #7
   0x1fff2250:	35f9    	adds	r5, #249	@ 0xf9
   0x1fff2252:	2180    	movs	r1, #128	@ 0x80
   0x1fff2254:	69ea    	ldr	r2, [r5, #28]
   0x1fff2256:	f001 f896	bl	0x1fff3386
   0x1fff225a:	69ea    	ldr	r2, [r5, #28]
   0x1fff225c:	4601    	mov	r1, r0
   0x1fff225e:	1850    	adds	r0, r2, r1
   0x1fff2260:	61e8    	str	r0, [r5, #28]
   0x1fff2262:	8822    	ldrh	r2, [r4, #0]
   0x1fff2264:	1a50    	subs	r0, r2, r1
   0x1fff2266:	8020    	strh	r0, [r4, #0]
   0x1fff2268:	bd70    	pop	{r4, r5, r6, pc}
   0x1fff226a:	b570    	push	{r4, r5, r6, lr}
   0x1fff226c:	1dc5    	adds	r5, r0, #7
   0x1fff226e:	35f9    	adds	r5, #249	@ 0xf9
   0x1fff2270:	4604    	mov	r4, r0
   0x1fff2272:	2100    	movs	r1, #0
   0x1fff2274:	69ea    	ldr	r2, [r5, #28]
   0x1fff2276:	f000 fffe	bl	0x1fff3276
   0x1fff227a:	69e9    	ldr	r1, [r5, #28]
   0x1fff227c:	34ff    	adds	r4, #255	@ 0xff
   0x1fff227e:	1809    	adds	r1, r1, r0
   0x1fff2280:	3421    	adds	r4, #33	@ 0x21
   0x1fff2282:	61e9    	str	r1, [r5, #28]
   0x1fff2284:	8821    	ldrh	r1, [r4, #0]
   0x1fff2286:	1a08    	subs	r0, r1, r0
   0x1fff2288:	8020    	strh	r0, [r4, #0]
   0x1fff228a:	bd70    	pop	{r4, r5, r6, pc}
   0x1fff228c:	b510    	push	{r4, lr}
   0x1fff228e:	2300    	movs	r3, #0
   0x1fff2290:	461a    	mov	r2, r3
   0x1fff2292:	2180    	movs	r1, #128	@ 0x80
   0x1fff2294:	f001 f877	bl	0x1fff3386
   0x1fff2298:	bd10    	pop	{r4, pc}
   0x1fff229a:	4602    	mov	r2, r0
   0x1fff229c:	b510    	push	{r4, lr}
   0x1fff229e:	32ff    	adds	r2, #255	@ 0xff
   0x1fff22a0:	3225    	adds	r2, #37	@ 0x25
   0x1fff22a2:	2100    	movs	r1, #0
   0x1fff22a4:	f000 ffe7	bl	0x1fff3276
   0x1fff22a8:	bd10    	pop	{r4, pc}
   0x1fff22aa:	b5f0    	push	{r4, r5, r6, r7, lr}
   0x1fff22ac:	4604    	mov	r4, r0
   0x1fff22ae:	34ff    	adds	r4, #255	@ 0xff
   0x1fff22b0:	3461    	adds	r4, #97	@ 0x61
   0x1fff22b2:	7921    	ldrb	r1, [r4, #4]
   0x1fff22b4:	4ac3    	ldr	r2, [pc, #780]	@ (0x1fff25c4)
   0x1fff22b6:	06c9    	lsls	r1, r1, #27
   0x1fff22b8:	1dc3    	adds	r3, r0, #7
   0x1fff22ba:	1e52    	subs	r2, r2, #1
   0x1fff22bc:	0ec9    	lsrs	r1, r1, #27
   0x1fff22be:	33f9    	adds	r3, #249	@ 0xf9
   0x1fff22c0:	2900    	cmp	r1, #0
   0x1fff22c2:	d008    	beq.n	0x1fff22d6
   0x1fff22c4:	461d    	mov	r5, r3
   0x1fff22c6:	3520    	adds	r5, #32
   0x1fff22c8:	1d2e    	adds	r6, r5, #4
   0x1fff22ca:	30e0    	adds	r0, #224	@ 0xe0
   0x1fff22cc:	2901    	cmp	r1, #1
   0x1fff22ce:	d005    	beq.n	0x1fff22dc
   0x1fff22d0:	2902    	cmp	r1, #2
   0x1fff22d2:	d127    	bne.n	0x1fff2324
   0x1fff22d4:	e00b    	b.n	0x1fff22ee
   0x1fff22d6:	30ee    	adds	r0, #238	@ 0xee
   0x1fff22d8:	61d8    	str	r0, [r3, #28]
   0x1fff22da:	e022    	b.n	0x1fff2322
   0x1fff22dc:	7b41    	ldrb	r1, [r0, #13]
   0x1fff22de:	2900    	cmp	r1, #0
   0x1fff22e0:	d020    	beq.n	0x1fff2324
   0x1fff22e2:	7a21    	ldrb	r1, [r4, #8]
   0x1fff22e4:	7ac0    	ldrb	r0, [r0, #11]
   0x1fff22e6:	4281    	cmp	r1, r0
   0x1fff22e8:	d21c    	bcs.n	0x1fff2324
   0x1fff22ea:	2000    	movs	r0, #0
   0x1fff22ec:	e017    	b.n	0x1fff231e
   0x1fff22ee:	7a21    	ldrb	r1, [r4, #8]
   0x1fff22f0:	248f    	movs	r4, #143	@ 0x8f
   0x1fff22f2:	4021    	ands	r1, r4
   0x1fff22f4:	2401    	movs	r4, #1
   0x1fff22f6:	408c    	lsls	r4, r1
   0x1fff22f8:	060f    	lsls	r7, r1, #24
   0x1fff22fa:	d504    	bpl.n	0x1fff2306
   0x1fff22fc:	070f    	lsls	r7, r1, #28
   0x1fff22fe:	0f3f    	lsrs	r7, r7, #28
   0x1fff2300:	2401    	movs	r4, #1
   0x1fff2302:	0424    	lsls	r4, r4, #16
   0x1fff2304:	40bc    	lsls	r4, r7
   0x1fff2306:	7b40    	ldrb	r0, [r0, #13]
   0x1fff2308:	2800    	cmp	r0, #0
   0x1fff230a:	d101    	bne.n	0x1fff2310
   0x1fff230c:	0708    	lsls	r0, r1, #28
   0x1fff230e:	d109    	bne.n	0x1fff2324
   0x1fff2310:	6858    	ldr	r0, [r3, #4]
   0x1fff2312:	4220    	tst	r0, r4
   0x1fff2314:	d006    	beq.n	0x1fff2324
   0x1fff2316:	6898    	ldr	r0, [r3, #8]
   0x1fff2318:	4020    	ands	r0, r4
   0x1fff231a:	d000    	beq.n	0x1fff231e
   0x1fff231c:	2001    	movs	r0, #1
   0x1fff231e:	80a8    	strh	r0, [r5, #4]
   0x1fff2320:	61de    	str	r6, [r3, #28]
   0x1fff2322:	2200    	movs	r2, #0
   0x1fff2324:	4610    	mov	r0, r2
   0x1fff2326:	bdf0    	pop	{r4, r5, r6, r7, pc}
   0x1fff2328:	b5f8    	push	{r3, r4, r5, r6, r7, lr}
   0x1fff232a:	4602    	mov	r2, r0
   0x1fff232c:	32ff    	adds	r2, #255	@ 0xff
   0x1fff232e:	460e    	mov	r6, r1
   0x1fff2330:	3261    	adds	r2, #97	@ 0x61
   0x1fff2332:	7911    	ldrb	r1, [r2, #4]
   0x1fff2334:	4ba3    	ldr	r3, [pc, #652]	@ (0x1fff25c4)
   0x1fff2336:	06c9    	lsls	r1, r1, #27
   0x1fff2338:	4604    	mov	r4, r0
   0x1fff233a:	1e5b    	subs	r3, r3, #1
   0x1fff233c:	0ec9    	lsrs	r1, r1, #27
   0x1fff233e:	34e0    	adds	r4, #224	@ 0xe0
   0x1fff2340:	2900    	cmp	r1, #0
   0x1fff2342:	d002    	beq.n	0x1fff234a
   0x1fff2344:	2902    	cmp	r1, #2
   0x1fff2346:	d142    	bne.n	0x1fff23ce
   0x1fff2348:	e018    	b.n	0x1fff237c
   0x1fff234a:	88d1    	ldrh	r1, [r2, #6]
   0x1fff234c:	2901    	cmp	r1, #1
   0x1fff234e:	d002    	beq.n	0x1fff2356
   0x1fff2350:	2902    	cmp	r1, #2
   0x1fff2352:	d00e    	beq.n	0x1fff2372
   0x1fff2354:	e03b    	b.n	0x1fff23ce
   0x1fff2356:	6c02    	ldr	r2, [r0, #64]	@ 0x40
   0x1fff2358:	2a00    	cmp	r2, #0
   0x1fff235a:	d001    	beq.n	0x1fff2360
   0x1fff235c:	4631    	mov	r1, r6
   0x1fff235e:	4790    	blx	r2
   0x1fff2360:	2002    	movs	r0, #2
   0x1fff2362:	89e1    	ldrh	r1, [r4, #14]
   0x1fff2364:	2e00    	cmp	r6, #0
   0x1fff2366:	d001    	beq.n	0x1fff236c
   0x1fff2368:	4301    	orrs	r1, r0
   0x1fff236a:	e000    	b.n	0x1fff236e
   0x1fff236c:	4381    	bics	r1, r0
   0x1fff236e:	81e1    	strh	r1, [r4, #14]
   0x1fff2370:	e02c    	b.n	0x1fff23cc
   0x1fff2372:	7a51    	ldrb	r1, [r2, #9]
   0x1fff2374:	f000 fdc6	bl	0x1fff2f04
   0x1fff2378:	4603    	mov	r3, r0
   0x1fff237a:	e028    	b.n	0x1fff23ce
   0x1fff237c:	7a11    	ldrb	r1, [r2, #8]
   0x1fff237e:	258f    	movs	r5, #143	@ 0x8f
   0x1fff2380:	4029    	ands	r1, r5
   0x1fff2382:	2501    	movs	r5, #1
   0x1fff2384:	408d    	lsls	r5, r1
   0x1fff2386:	060f    	lsls	r7, r1, #24
   0x1fff2388:	d504    	bpl.n	0x1fff2394
   0x1fff238a:	070f    	lsls	r7, r1, #28
   0x1fff238c:	0f3f    	lsrs	r7, r7, #28
   0x1fff238e:	2501    	movs	r5, #1
   0x1fff2390:	042d    	lsls	r5, r5, #16
   0x1fff2392:	40bd    	lsls	r5, r7
   0x1fff2394:	7b64    	ldrb	r4, [r4, #13]
   0x1fff2396:	2c00    	cmp	r4, #0
   0x1fff2398:	d019    	beq.n	0x1fff23ce
   0x1fff239a:	070c    	lsls	r4, r1, #28
   0x1fff239c:	d017    	beq.n	0x1fff23ce
   0x1fff239e:	1dc4    	adds	r4, r0, #7
   0x1fff23a0:	34f9    	adds	r4, #249	@ 0xf9
   0x1fff23a2:	6867    	ldr	r7, [r4, #4]
   0x1fff23a4:	422f    	tst	r7, r5
   0x1fff23a6:	d012    	beq.n	0x1fff23ce
   0x1fff23a8:	88d2    	ldrh	r2, [r2, #6]
   0x1fff23aa:	2a00    	cmp	r2, #0
   0x1fff23ac:	d10f    	bne.n	0x1fff23ce
   0x1fff23ae:	2e00    	cmp	r6, #0
   0x1fff23b0:	d004    	beq.n	0x1fff23bc
   0x1fff23b2:	f000 fe54	bl	0x1fff305e
   0x1fff23b6:	68a0    	ldr	r0, [r4, #8]
   0x1fff23b8:	4328    	orrs	r0, r5
   0x1fff23ba:	e006    	b.n	0x1fff23ca
   0x1fff23bc:	68e2    	ldr	r2, [r4, #12]
   0x1fff23be:	422a    	tst	r2, r5
   0x1fff23c0:	d104    	bne.n	0x1fff23cc
   0x1fff23c2:	f000 fe7d	bl	0x1fff30c0
   0x1fff23c6:	68a0    	ldr	r0, [r4, #8]
   0x1fff23c8:	43a8    	bics	r0, r5
   0x1fff23ca:	60a0    	str	r0, [r4, #8]
   0x1fff23cc:	2300    	movs	r3, #0
   0x1fff23ce:	4618    	mov	r0, r3
   0x1fff23d0:	bdf8    	pop	{r3, r4, r5, r6, r7, pc}
   0x1fff23d2:	4601    	mov	r1, r0
   0x1fff23d4:	31ff    	adds	r1, #255	@ 0xff
   0x1fff23d6:	3161    	adds	r1, #97	@ 0x61
   0x1fff23d8:	790a    	ldrb	r2, [r1, #4]
   0x1fff23da:	06d2    	lsls	r2, r2, #27
   0x1fff23dc:	d002    	beq.n	0x1fff23e4
   0x1fff23de:	4879    	ldr	r0, [pc, #484]	@ (0x1fff25c4)
   0x1fff23e0:	1e40    	subs	r0, r0, #1
   0x1fff23e2:	4770    	bx	lr
   0x1fff23e4:	7989    	ldrb	r1, [r1, #6]
   0x1fff23e6:	2280    	movs	r2, #128	@ 0x80
   0x1fff23e8:	4311    	orrs	r1, r2
   0x1fff23ea:	30e0    	adds	r0, #224	@ 0xe0
   0x1fff23ec:	7301    	strb	r1, [r0, #12]
   0x1fff23ee:	2000    	movs	r0, #0
   0x1fff23f0:	4770    	bx	lr
   0x1fff23f2:	b570    	push	{r4, r5, r6, lr}
   0x1fff23f4:	4603    	mov	r3, r0
   0x1fff23f6:	33ff    	adds	r3, #255	@ 0xff
   0x1fff23f8:	3361    	adds	r3, #97	@ 0x61
   0x1fff23fa:	7919    	ldrb	r1, [r3, #4]
   0x1fff23fc:	4c73    	ldr	r4, [pc, #460]	@ (0x1fff25cc)
   0x1fff23fe:	06ca    	lsls	r2, r1, #27
   0x1fff2400:	0ed2    	lsrs	r2, r2, #27
   0x1fff2402:	d143    	bne.n	0x1fff248c
   0x1fff2404:	79da    	ldrb	r2, [r3, #7]
   0x1fff2406:	4601    	mov	r1, r0
   0x1fff2408:	31c0    	adds	r1, #192	@ 0xc0
   0x1fff240a:	2a01    	cmp	r2, #1
   0x1fff240c:	d004    	beq.n	0x1fff2418
   0x1fff240e:	2a02    	cmp	r2, #2
   0x1fff2410:	d008    	beq.n	0x1fff2424
   0x1fff2412:	2a03    	cmp	r2, #3
   0x1fff2414:	d13a    	bne.n	0x1fff248c
   0x1fff2416:	e01f    	b.n	0x1fff2458
   0x1fff2418:	6b0a    	ldr	r2, [r1, #48]	@ 0x30
   0x1fff241a:	21ff    	movs	r1, #255	@ 0xff
   0x1fff241c:	311d    	adds	r1, #29
   0x1fff241e:	500a    	str	r2, [r1, r0]
   0x1fff2420:	2112    	movs	r1, #18
   0x1fff2422:	e02b    	b.n	0x1fff247c
   0x1fff2424:	6bc9    	ldr	r1, [r1, #60]	@ 0x3c
   0x1fff2426:	2200    	movs	r2, #0
   0x1fff2428:	799b    	ldrb	r3, [r3, #6]
   0x1fff242a:	e008    	b.n	0x1fff243e
   0x1fff242c:	780d    	ldrb	r5, [r1, #0]
   0x1fff242e:	2d00    	cmp	r5, #0
   0x1fff2430:	d004    	beq.n	0x1fff243c
   0x1fff2432:	78cd    	ldrb	r5, [r1, #3]
   0x1fff2434:	788e    	ldrb	r6, [r1, #2]
   0x1fff2436:	022d    	lsls	r5, r5, #8
   0x1fff2438:	4335    	orrs	r5, r6
   0x1fff243a:	1869    	adds	r1, r5, r1
   0x1fff243c:	1c52    	adds	r2, r2, #1
   0x1fff243e:	4293    	cmp	r3, r2
   0x1fff2440:	d1f4    	bne.n	0x1fff242c
   0x1fff2442:	780a    	ldrb	r2, [r1, #0]
   0x1fff2444:	2a00    	cmp	r2, #0
   0x1fff2446:	d021    	beq.n	0x1fff248c
   0x1fff2448:	22ff    	movs	r2, #255	@ 0xff
   0x1fff244a:	321d    	adds	r2, #29
   0x1fff244c:	5011    	str	r1, [r2, r0]
   0x1fff244e:	78ca    	ldrb	r2, [r1, #3]
   0x1fff2450:	788b    	ldrb	r3, [r1, #2]
   0x1fff2452:	0211    	lsls	r1, r2, #8
   0x1fff2454:	4319    	orrs	r1, r3
   0x1fff2456:	e011    	b.n	0x1fff247c
   0x1fff2458:	6b49    	ldr	r1, [r1, #52]	@ 0x34
   0x1fff245a:	2200    	movs	r2, #0
   0x1fff245c:	799d    	ldrb	r5, [r3, #6]
   0x1fff245e:	e004    	b.n	0x1fff246a
   0x1fff2460:	780b    	ldrb	r3, [r1, #0]
   0x1fff2462:	2b00    	cmp	r3, #0
   0x1fff2464:	d000    	beq.n	0x1fff2468
   0x1fff2466:	1859    	adds	r1, r3, r1
   0x1fff2468:	1c52    	adds	r2, r2, #1
   0x1fff246a:	4295    	cmp	r5, r2
   0x1fff246c:	d1f8    	bne.n	0x1fff2460
   0x1fff246e:	780a    	ldrb	r2, [r1, #0]
   0x1fff2470:	2a00    	cmp	r2, #0
   0x1fff2472:	d00b    	beq.n	0x1fff248c
   0x1fff2474:	22ff    	movs	r2, #255	@ 0xff
   0x1fff2476:	321d    	adds	r2, #29
   0x1fff2478:	5011    	str	r1, [r2, r0]
   0x1fff247a:	7809    	ldrb	r1, [r1, #0]
   0x1fff247c:	30ff    	adds	r0, #255	@ 0xff
   0x1fff247e:	3021    	adds	r0, #33	@ 0x21
   0x1fff2480:	8802    	ldrh	r2, [r0, #0]
   0x1fff2482:	428a    	cmp	r2, r1
   0x1fff2484:	d900    	bls.n	0x1fff2488
   0x1fff2486:	8001    	strh	r1, [r0, #0]
   0x1fff2488:	2000    	movs	r0, #0
   0x1fff248a:	bd70    	pop	{r4, r5, r6, pc}
   0x1fff248c:	4620    	mov	r0, r4
   0x1fff248e:	bd70    	pop	{r4, r5, r6, pc}
   0x1fff2490:	21ff    	movs	r1, #255	@ 0xff
   0x1fff2492:	3165    	adds	r1, #101	@ 0x65
   0x1fff2494:	5c09    	ldrb	r1, [r1, r0]
   0x1fff2496:	06c9    	lsls	r1, r1, #27
   0x1fff2498:	d001    	beq.n	0x1fff249e
   0x1fff249a:	484c    	ldr	r0, [pc, #304]	@ (0x1fff25cc)
   0x1fff249c:	4770    	bx	lr
   0x1fff249e:	4601    	mov	r1, r0
   0x1fff24a0:	31ed    	adds	r1, #237	@ 0xed
   0x1fff24a2:	30ff    	adds	r0, #255	@ 0xff
   0x1fff24a4:	3001    	adds	r0, #1
   0x1fff24a6:	61c1    	str	r1, [r0, #28]
   0x1fff24a8:	2000    	movs	r0, #0
   0x1fff24aa:	4770    	bx	lr
   0x1fff24ac:	b5fe    	push	{r1, r2, r3, r4, r5, r6, r7, lr}
   0x1fff24ae:	2100    	movs	r1, #0
   0x1fff24b0:	9102    	str	r1, [sp, #8]
   0x1fff24b2:	4601    	mov	r1, r0
   0x1fff24b4:	31ff    	adds	r1, #255	@ 0xff
   0x1fff24b6:	3161    	adds	r1, #97	@ 0x61
   0x1fff24b8:	9000    	str	r0, [sp, #0]
   0x1fff24ba:	9101    	str	r1, [sp, #4]
   0x1fff24bc:	7909    	ldrb	r1, [r1, #4]
   0x1fff24be:	06c9    	lsls	r1, r1, #27
   0x1fff24c0:	0ec9    	lsrs	r1, r1, #27
   0x1fff24c2:	d17d    	bne.n	0x1fff25c0
   0x1fff24c4:	9901    	ldr	r1, [sp, #4]
   0x1fff24c6:	4606    	mov	r6, r0
   0x1fff24c8:	7989    	ldrb	r1, [r1, #6]
   0x1fff24ca:	36e0    	adds	r6, #224	@ 0xe0
   0x1fff24cc:	2900    	cmp	r1, #0
   0x1fff24ce:	d078    	beq.n	0x1fff25c2
   0x1fff24d0:	7ab1    	ldrb	r1, [r6, #10]
   0x1fff24d2:	30c0    	adds	r0, #192	@ 0xc0
   0x1fff24d4:	2901    	cmp	r1, #1
   0x1fff24d6:	d001    	beq.n	0x1fff24dc
   0x1fff24d8:	6b84    	ldr	r4, [r0, #56]	@ 0x38
   0x1fff24da:	e081    	b.n	0x1fff25e0
   0x1fff24dc:	6bc4    	ldr	r4, [r0, #60]	@ 0x3c
   0x1fff24de:	e07f    	b.n	0x1fff25e0
   0x1fff24e0:	7860    	ldrb	r0, [r4, #1]
   0x1fff24e2:	2802    	cmp	r0, #2
   0x1fff24e4:	d004    	beq.n	0x1fff24f0
   0x1fff24e6:	2804    	cmp	r0, #4
   0x1fff24e8:	d04b    	beq.n	0x1fff2582
   0x1fff24ea:	2805    	cmp	r0, #5
   0x1fff24ec:	d176    	bne.n	0x1fff25dc
   0x1fff24ee:	e04b    	b.n	0x1fff2588
   0x1fff24f0:	9801    	ldr	r0, [sp, #4]
   0x1fff24f2:	7961    	ldrb	r1, [r4, #5]
   0x1fff24f4:	7980    	ldrb	r0, [r0, #6]
   0x1fff24f6:	4281    	cmp	r1, r0
   0x1fff24f8:	d13e    	bne.n	0x1fff2578
   0x1fff24fa:	7370    	strb	r0, [r6, #13]
   0x1fff24fc:	7920    	ldrb	r0, [r4, #4]
   0x1fff24fe:	72f0    	strb	r0, [r6, #11]
   0x1fff2500:	2000    	movs	r0, #0
   0x1fff2502:	9a00    	ldr	r2, [sp, #0]
   0x1fff2504:	2100    	movs	r1, #0
   0x1fff2506:	1812    	adds	r2, r2, r0
   0x1fff2508:	32ff    	adds	r2, #255	@ 0xff
   0x1fff250a:	3201    	adds	r2, #1
   0x1fff250c:	1c40    	adds	r0, r0, #1
   0x1fff250e:	7411    	strb	r1, [r2, #16]
   0x1fff2510:	2808    	cmp	r0, #8
   0x1fff2512:	d3f6    	bcc.n	0x1fff2502
   0x1fff2514:	9f00    	ldr	r7, [sp, #0]
   0x1fff2516:	2501    	movs	r5, #1
   0x1fff2518:	37ff    	adds	r7, #255	@ 0xff
   0x1fff251a:	3701    	adds	r7, #1
   0x1fff251c:	e015    	b.n	0x1fff254a
   0x1fff251e:	2001    	movs	r0, #1
   0x1fff2520:	6879    	ldr	r1, [r7, #4]
   0x1fff2522:	40a8    	lsls	r0, r5
   0x1fff2524:	4201    	tst	r1, r0
   0x1fff2526:	d003    	beq.n	0x1fff2530
   0x1fff2528:	4629    	mov	r1, r5
   0x1fff252a:	9800    	ldr	r0, [sp, #0]
   0x1fff252c:	f000 fd5d	bl	0x1fff2fea
   0x1fff2530:	2001    	movs	r0, #1
   0x1fff2532:	0400    	lsls	r0, r0, #16
   0x1fff2534:	6879    	ldr	r1, [r7, #4]
   0x1fff2536:	40a8    	lsls	r0, r5
   0x1fff2538:	4201    	tst	r1, r0
   0x1fff253a:	d005    	beq.n	0x1fff2548
   0x1fff253c:	4629    	mov	r1, r5
   0x1fff253e:	2080    	movs	r0, #128	@ 0x80
   0x1fff2540:	4301    	orrs	r1, r0
   0x1fff2542:	9800    	ldr	r0, [sp, #0]
   0x1fff2544:	f000 fd51	bl	0x1fff2fea
   0x1fff2548:	1c6d    	adds	r5, r5, #1
   0x1fff254a:	7a70    	ldrb	r0, [r6, #9]
   0x1fff254c:	42a8    	cmp	r0, r5
   0x1fff254e:	d8e6    	bhi.n	0x1fff251e
   0x1fff2550:	481d    	ldr	r0, [pc, #116]	@ (0x1fff25c8)
   0x1fff2552:	6078    	str	r0, [r7, #4]
   0x1fff2554:	2000    	movs	r0, #0
   0x1fff2556:	60b8    	str	r0, [r7, #8]
   0x1fff2558:	60f8    	str	r0, [r7, #12]
   0x1fff255a:	2101    	movs	r1, #1
   0x1fff255c:	9800    	ldr	r0, [sp, #0]
   0x1fff255e:	f000 fcd3	bl	0x1fff2f08
   0x1fff2562:	79e0    	ldrb	r0, [r4, #7]
   0x1fff2564:	0640    	lsls	r0, r0, #25
   0x1fff2566:	89f0    	ldrh	r0, [r6, #14]
   0x1fff2568:	d502    	bpl.n	0x1fff2570
   0x1fff256a:	2101    	movs	r1, #1
   0x1fff256c:	4308    	orrs	r0, r1
   0x1fff256e:	e001    	b.n	0x1fff2574
   0x1fff2570:	0840    	lsrs	r0, r0, #1
   0x1fff2572:	0040    	lsls	r0, r0, #1
   0x1fff2574:	81f0    	strh	r0, [r6, #14]
   0x1fff2576:	e031    	b.n	0x1fff25dc
   0x1fff2578:	78e0    	ldrb	r0, [r4, #3]
   0x1fff257a:	78a1    	ldrb	r1, [r4, #2]
   0x1fff257c:	0200    	lsls	r0, r0, #8
   0x1fff257e:	4308    	orrs	r0, r1
   0x1fff2580:	e02d    	b.n	0x1fff25de
   0x1fff2582:	78e0    	ldrb	r0, [r4, #3]
   0x1fff2584:	9002    	str	r0, [sp, #8]
   0x1fff2586:	e029    	b.n	0x1fff25dc
   0x1fff2588:	9802    	ldr	r0, [sp, #8]
   0x1fff258a:	2800    	cmp	r0, #0
   0x1fff258c:	d126    	bne.n	0x1fff25dc
   0x1fff258e:	78a5    	ldrb	r5, [r4, #2]
   0x1fff2590:	208f    	movs	r0, #143	@ 0x8f
   0x1fff2592:	4005    	ands	r5, r0
   0x1fff2594:	2001    	movs	r0, #1
   0x1fff2596:	40a8    	lsls	r0, r5
   0x1fff2598:	0629    	lsls	r1, r5, #24
   0x1fff259a:	d504    	bpl.n	0x1fff25a6
   0x1fff259c:	0729    	lsls	r1, r5, #28
   0x1fff259e:	0f09    	lsrs	r1, r1, #28
   0x1fff25a0:	2001    	movs	r0, #1
   0x1fff25a2:	0400    	lsls	r0, r0, #16
   0x1fff25a4:	4088    	lsls	r0, r1
   0x1fff25a6:	9900    	ldr	r1, [sp, #0]
   0x1fff25a8:	31ff    	adds	r1, #255	@ 0xff
   0x1fff25aa:	3101    	adds	r1, #1
   0x1fff25ac:	684a    	ldr	r2, [r1, #4]
   0x1fff25ae:	4302    	orrs	r2, r0
   0x1fff25b0:	604a    	str	r2, [r1, #4]
   0x1fff25b2:	4621    	mov	r1, r4
   0x1fff25b4:	9800    	ldr	r0, [sp, #0]
   0x1fff25b6:	f000 fcb2	bl	0x1fff2f1e
   0x1fff25ba:	4629    	mov	r1, r5
   0x1fff25bc:	9800    	ldr	r0, [sp, #0]
   0x1fff25be:	e007    	b.n	0x1fff25d0
   0x1fff25c0:	e042    	b.n	0x1fff2648
   0x1fff25c2:	e012    	b.n	0x1fff25ea
   0x1fff25c4:	0002    	movs	r2, r0
   0x1fff25c6:	0004    	movs	r4, r0
   0x1fff25c8:	0001    	movs	r1, r0
   0x1fff25ca:	0001    	movs	r1, r0
   0x1fff25cc:	0001    	movs	r1, r0
   0x1fff25ce:	0004    	movs	r4, r0
   0x1fff25d0:	f000 fceb	bl	0x1fff2faa
   0x1fff25d4:	4629    	mov	r1, r5
   0x1fff25d6:	9800    	ldr	r0, [sp, #0]
   0x1fff25d8:	f000 fd1e	bl	0x1fff3018
   0x1fff25dc:	7820    	ldrb	r0, [r4, #0]
   0x1fff25de:	1904    	adds	r4, r0, r4
   0x1fff25e0:	7820    	ldrb	r0, [r4, #0]
   0x1fff25e2:	2800    	cmp	r0, #0
   0x1fff25e4:	d000    	beq.n	0x1fff25e8
   0x1fff25e6:	e77b    	b.n	0x1fff24e0
   0x1fff25e8:	e027    	b.n	0x1fff263a
   0x1fff25ea:	2700    	movs	r7, #0
   0x1fff25ec:	7377    	strb	r7, [r6, #13]
   0x1fff25ee:	9d00    	ldr	r5, [sp, #0]
   0x1fff25f0:	2401    	movs	r4, #1
   0x1fff25f2:	35ff    	adds	r5, #255	@ 0xff
   0x1fff25f4:	3501    	adds	r5, #1
   0x1fff25f6:	e015    	b.n	0x1fff2624
   0x1fff25f8:	2001    	movs	r0, #1
   0x1fff25fa:	6869    	ldr	r1, [r5, #4]
   0x1fff25fc:	40a0    	lsls	r0, r4
   0x1fff25fe:	4201    	tst	r1, r0
   0x1fff2600:	d003    	beq.n	0x1fff260a
   0x1fff2602:	4621    	mov	r1, r4
   0x1fff2604:	9800    	ldr	r0, [sp, #0]
   0x1fff2606:	f000 fcf0	bl	0x1fff2fea
   0x1fff260a:	2001    	movs	r0, #1
   0x1fff260c:	0400    	lsls	r0, r0, #16
   0x1fff260e:	6869    	ldr	r1, [r5, #4]
   0x1fff2610:	40a0    	lsls	r0, r4
   0x1fff2612:	4201    	tst	r1, r0
   0x1fff2614:	d005    	beq.n	0x1fff2622
   0x1fff2616:	4621    	mov	r1, r4
   0x1fff2618:	2080    	movs	r0, #128	@ 0x80
   0x1fff261a:	4301    	orrs	r1, r0
   0x1fff261c:	9800    	ldr	r0, [sp, #0]
   0x1fff261e:	f000 fce4	bl	0x1fff2fea
   0x1fff2622:	1c64    	adds	r4, r4, #1
   0x1fff2624:	7a70    	ldrb	r0, [r6, #9]
   0x1fff2626:	42a0    	cmp	r0, r4
   0x1fff2628:	d8e6    	bhi.n	0x1fff25f8
   0x1fff262a:	60af    	str	r7, [r5, #8]
   0x1fff262c:	48fe    	ldr	r0, [pc, #1016]	@ (0x1fff2a28)
   0x1fff262e:	60ef    	str	r7, [r5, #12]
   0x1fff2630:	6068    	str	r0, [r5, #4]
   0x1fff2632:	2100    	movs	r1, #0
   0x1fff2634:	9800    	ldr	r0, [sp, #0]
   0x1fff2636:	f000 fc67	bl	0x1fff2f08
   0x1fff263a:	9800    	ldr	r0, [sp, #0]
   0x1fff263c:	30e0    	adds	r0, #224	@ 0xe0
   0x1fff263e:	7b41    	ldrb	r1, [r0, #13]
   0x1fff2640:	9801    	ldr	r0, [sp, #4]
   0x1fff2642:	7980    	ldrb	r0, [r0, #6]
   0x1fff2644:	4281    	cmp	r1, r0
   0x1fff2646:	d001    	beq.n	0x1fff264c
   0x1fff2648:	48f8    	ldr	r0, [pc, #992]	@ (0x1fff2a2c)
   0x1fff264a:	bdfe    	pop	{r1, r2, r3, r4, r5, r6, r7, pc}
   0x1fff264c:	2000    	movs	r0, #0
   0x1fff264e:	bdfe    	pop	{r1, r2, r3, r4, r5, r6, r7, pc}
   0x1fff2650:	4601    	mov	r1, r0
   0x1fff2652:	31ff    	adds	r1, #255	@ 0xff
   0x1fff2654:	3161    	adds	r1, #97	@ 0x61
   0x1fff2656:	460b    	mov	r3, r1
   0x1fff2658:	7909    	ldrb	r1, [r1, #4]
   0x1fff265a:	06c9    	lsls	r1, r1, #27
   0x1fff265c:	0ec9    	lsrs	r1, r1, #27
   0x1fff265e:	2901    	cmp	r1, #1
   0x1fff2660:	d112    	bne.n	0x1fff2688
   0x1fff2662:	4601    	mov	r1, r0
   0x1fff2664:	31e0    	adds	r1, #224	@ 0xe0
   0x1fff2666:	460a    	mov	r2, r1
   0x1fff2668:	7b49    	ldrb	r1, [r1, #13]
   0x1fff266a:	2900    	cmp	r1, #0
   0x1fff266c:	d00c    	beq.n	0x1fff2688
   0x1fff266e:	7a19    	ldrb	r1, [r3, #8]
   0x1fff2670:	7ad2    	ldrb	r2, [r2, #11]
   0x1fff2672:	4291    	cmp	r1, r2
   0x1fff2674:	d208    	bcs.n	0x1fff2688
   0x1fff2676:	4602    	mov	r2, r0
   0x1fff2678:	32ff    	adds	r2, #255	@ 0xff
   0x1fff267a:	3211    	adds	r2, #17
   0x1fff267c:	1889    	adds	r1, r1, r2
   0x1fff267e:	30ff    	adds	r0, #255	@ 0xff
   0x1fff2680:	3001    	adds	r0, #1
   0x1fff2682:	61c1    	str	r1, [r0, #28]
   0x1fff2684:	2000    	movs	r0, #0
   0x1fff2686:	4770    	bx	lr
   0x1fff2688:	48e8    	ldr	r0, [pc, #928]	@ (0x1fff2a2c)
   0x1fff268a:	4770    	bx	lr
   0x1fff268c:	b5f0    	push	{r4, r5, r6, r7, lr}
   0x1fff268e:	b087    	sub	sp, #28
   0x1fff2690:	2100    	movs	r1, #0
   0x1fff2692:	460e    	mov	r6, r1
   0x1fff2694:	9101    	str	r1, [sp, #4]
   0x1fff2696:	9104    	str	r1, [sp, #16]
   0x1fff2698:	9102    	str	r1, [sp, #8]
   0x1fff269a:	4601    	mov	r1, r0
   0x1fff269c:	4be3    	ldr	r3, [pc, #908]	@ (0x1fff2a2c)
   0x1fff269e:	31ff    	adds	r1, #255	@ 0xff
   0x1fff26a0:	9305    	str	r3, [sp, #20]
   0x1fff26a2:	3161    	adds	r1, #97	@ 0x61
   0x1fff26a4:	9000    	str	r0, [sp, #0]
   0x1fff26a6:	9103    	str	r1, [sp, #12]
   0x1fff26a8:	7909    	ldrb	r1, [r1, #4]
   0x1fff26aa:	06c9    	lsls	r1, r1, #27
   0x1fff26ac:	0ec9    	lsrs	r1, r1, #27
   0x1fff26ae:	2901    	cmp	r1, #1
   0x1fff26b0:	d17e    	bne.n	0x1fff27b0
   0x1fff26b2:	4602    	mov	r2, r0
   0x1fff26b4:	32e0    	adds	r2, #224	@ 0xe0
   0x1fff26b6:	9206    	str	r2, [sp, #24]
   0x1fff26b8:	7b51    	ldrb	r1, [r2, #13]
   0x1fff26ba:	2900    	cmp	r1, #0
   0x1fff26bc:	d07d    	beq.n	0x1fff27ba
   0x1fff26be:	7a91    	ldrb	r1, [r2, #10]
   0x1fff26c0:	30c0    	adds	r0, #192	@ 0xc0
   0x1fff26c2:	2901    	cmp	r1, #1
   0x1fff26c4:	d001    	beq.n	0x1fff26ca
   0x1fff26c6:	6b84    	ldr	r4, [r0, #56]	@ 0x38
   0x1fff26c8:	e06f    	b.n	0x1fff27aa
   0x1fff26ca:	6bc4    	ldr	r4, [r0, #60]	@ 0x3c
   0x1fff26cc:	e06d    	b.n	0x1fff27aa
   0x1fff26ce:	7860    	ldrb	r0, [r4, #1]
   0x1fff26d0:	2802    	cmp	r0, #2
   0x1fff26d2:	d004    	beq.n	0x1fff26de
   0x1fff26d4:	2804    	cmp	r0, #4
   0x1fff26d6:	d00c    	beq.n	0x1fff26f2
   0x1fff26d8:	2805    	cmp	r0, #5
   0x1fff26da:	d164    	bne.n	0x1fff27a6
   0x1fff26dc:	e022    	b.n	0x1fff2724
   0x1fff26de:	9806    	ldr	r0, [sp, #24]
   0x1fff26e0:	7961    	ldrb	r1, [r4, #5]
   0x1fff26e2:	7b40    	ldrb	r0, [r0, #13]
   0x1fff26e4:	4281    	cmp	r1, r0
   0x1fff26e6:	d05e    	beq.n	0x1fff27a6
   0x1fff26e8:	78e0    	ldrb	r0, [r4, #3]
   0x1fff26ea:	78a1    	ldrb	r1, [r4, #2]
   0x1fff26ec:	0200    	lsls	r0, r0, #8
   0x1fff26ee:	4308    	orrs	r0, r1
   0x1fff26f0:	e05a    	b.n	0x1fff27a8
   0x1fff26f2:	78a0    	ldrb	r0, [r4, #2]
   0x1fff26f4:	9001    	str	r0, [sp, #4]
   0x1fff26f6:	78e6    	ldrb	r6, [r4, #3]
   0x1fff26f8:	2000    	movs	r0, #0
   0x1fff26fa:	9002    	str	r0, [sp, #8]
   0x1fff26fc:	9803    	ldr	r0, [sp, #12]
   0x1fff26fe:	7a01    	ldrb	r1, [r0, #8]
   0x1fff2700:	9801    	ldr	r0, [sp, #4]
   0x1fff2702:	4281    	cmp	r1, r0
   0x1fff2704:	d14f    	bne.n	0x1fff27a6
   0x1fff2706:	9803    	ldr	r0, [sp, #12]
   0x1fff2708:	7980    	ldrb	r0, [r0, #6]
   0x1fff270a:	42b0    	cmp	r0, r6
   0x1fff270c:	d14b    	bne.n	0x1fff27a6
   0x1fff270e:	2000    	movs	r0, #0
   0x1fff2710:	9005    	str	r0, [sp, #20]
   0x1fff2712:	9901    	ldr	r1, [sp, #4]
   0x1fff2714:	9800    	ldr	r0, [sp, #0]
   0x1fff2716:	1840    	adds	r0, r0, r1
   0x1fff2718:	30ff    	adds	r0, #255	@ 0xff
   0x1fff271a:	3001    	adds	r0, #1
   0x1fff271c:	7c01    	ldrb	r1, [r0, #16]
   0x1fff271e:	9104    	str	r1, [sp, #16]
   0x1fff2720:	7406    	strb	r6, [r0, #16]
   0x1fff2722:	e040    	b.n	0x1fff27a6
   0x1fff2724:	9803    	ldr	r0, [sp, #12]
   0x1fff2726:	7a01    	ldrb	r1, [r0, #8]
   0x1fff2728:	9801    	ldr	r0, [sp, #4]
   0x1fff272a:	4281    	cmp	r1, r0
   0x1fff272c:	d13b    	bne.n	0x1fff27a6
   0x1fff272e:	78a7    	ldrb	r7, [r4, #2]
   0x1fff2730:	208f    	movs	r0, #143	@ 0x8f
   0x1fff2732:	4007    	ands	r7, r0
   0x1fff2734:	2501    	movs	r5, #1
   0x1fff2736:	40bd    	lsls	r5, r7
   0x1fff2738:	0638    	lsls	r0, r7, #24
   0x1fff273a:	d504    	bpl.n	0x1fff2746
   0x1fff273c:	0738    	lsls	r0, r7, #28
   0x1fff273e:	0f00    	lsrs	r0, r0, #28
   0x1fff2740:	2501    	movs	r5, #1
   0x1fff2742:	042d    	lsls	r5, r5, #16
   0x1fff2744:	4085    	lsls	r5, r0
   0x1fff2746:	9803    	ldr	r0, [sp, #12]
   0x1fff2748:	7980    	ldrb	r0, [r0, #6]
   0x1fff274a:	42b0    	cmp	r0, r6
   0x1fff274c:	d118    	bne.n	0x1fff2780
   0x1fff274e:	9800    	ldr	r0, [sp, #0]
   0x1fff2750:	30ff    	adds	r0, #255	@ 0xff
   0x1fff2752:	3001    	adds	r0, #1
   0x1fff2754:	6841    	ldr	r1, [r0, #4]
   0x1fff2756:	4329    	orrs	r1, r5
   0x1fff2758:	6041    	str	r1, [r0, #4]
   0x1fff275a:	6881    	ldr	r1, [r0, #8]
   0x1fff275c:	43a9    	bics	r1, r5
   0x1fff275e:	6081    	str	r1, [r0, #8]
   0x1fff2760:	4621    	mov	r1, r4
   0x1fff2762:	9800    	ldr	r0, [sp, #0]
   0x1fff2764:	f000 fbdb	bl	0x1fff2f1e
   0x1fff2768:	4639    	mov	r1, r7
   0x1fff276a:	9800    	ldr	r0, [sp, #0]
   0x1fff276c:	f000 fc1d	bl	0x1fff2faa
   0x1fff2770:	4639    	mov	r1, r7
   0x1fff2772:	9800    	ldr	r0, [sp, #0]
   0x1fff2774:	f000 fc50	bl	0x1fff3018
   0x1fff2778:	9802    	ldr	r0, [sp, #8]
   0x1fff277a:	4328    	orrs	r0, r5
   0x1fff277c:	9002    	str	r0, [sp, #8]
   0x1fff277e:	e012    	b.n	0x1fff27a6
   0x1fff2780:	9804    	ldr	r0, [sp, #16]
   0x1fff2782:	4286    	cmp	r6, r0
   0x1fff2784:	d10f    	bne.n	0x1fff27a6
   0x1fff2786:	9802    	ldr	r0, [sp, #8]
   0x1fff2788:	4228    	tst	r0, r5
   0x1fff278a:	d10c    	bne.n	0x1fff27a6
   0x1fff278c:	9800    	ldr	r0, [sp, #0]
   0x1fff278e:	30ff    	adds	r0, #255	@ 0xff
   0x1fff2790:	3001    	adds	r0, #1
   0x1fff2792:	6841    	ldr	r1, [r0, #4]
   0x1fff2794:	43a9    	bics	r1, r5
   0x1fff2796:	6041    	str	r1, [r0, #4]
   0x1fff2798:	6881    	ldr	r1, [r0, #8]
   0x1fff279a:	43a9    	bics	r1, r5
   0x1fff279c:	6081    	str	r1, [r0, #8]
   0x1fff279e:	4639    	mov	r1, r7
   0x1fff27a0:	9800    	ldr	r0, [sp, #0]
   0x1fff27a2:	f000 fc22	bl	0x1fff2fea
   0x1fff27a6:	7820    	ldrb	r0, [r4, #0]
   0x1fff27a8:	1904    	adds	r4, r0, r4
   0x1fff27aa:	7820    	ldrb	r0, [r4, #0]
   0x1fff27ac:	2800    	cmp	r0, #0
   0x1fff27ae:	e000    	b.n	0x1fff27b2
   0x1fff27b0:	e003    	b.n	0x1fff27ba
   0x1fff27b2:	d18c    	bne.n	0x1fff26ce
   0x1fff27b4:	9805    	ldr	r0, [sp, #20]
   0x1fff27b6:	b007    	add	sp, #28
   0x1fff27b8:	bdf0    	pop	{r4, r5, r6, r7, pc}
   0x1fff27ba:	4618    	mov	r0, r3
   0x1fff27bc:	e7fb    	b.n	0x1fff27b6
   0x1fff27be:	b5f8    	push	{r3, r4, r5, r6, r7, lr}
   0x1fff27c0:	4f9a    	ldr	r7, [pc, #616]	@ (0x1fff2a2c)
   0x1fff27c2:	4604    	mov	r4, r0
   0x1fff27c4:	1c7f    	adds	r7, r7, #1
   0x1fff27c6:	f7ff fd32	bl	0x1fff222e
   0x1fff27ca:	4625    	mov	r5, r4
   0x1fff27cc:	35ff    	adds	r5, #255	@ 0xff
   0x1fff27ce:	3561    	adds	r5, #97	@ 0x61
   0x1fff27d0:	7928    	ldrb	r0, [r5, #4]
   0x1fff27d2:	09c1    	lsrs	r1, r0, #7
   0x1fff27d4:	4620    	mov	r0, r4
   0x1fff27d6:	f000 fbe7	bl	0x1fff2fa8
   0x1fff27da:	462e    	mov	r6, r5
   0x1fff27dc:	8968    	ldrh	r0, [r5, #10]
   0x1fff27de:	3e40    	subs	r6, #64	@ 0x40
   0x1fff27e0:	8030    	strh	r0, [r6, #0]
   0x1fff27e2:	2101    	movs	r1, #1
   0x1fff27e4:	4620    	mov	r0, r4
   0x1fff27e6:	f7ff fcf1	bl	0x1fff21cc
   0x1fff27ea:	42b8    	cmp	r0, r7
   0x1fff27ec:	d16f    	bne.n	0x1fff28ce
   0x1fff27ee:	7929    	ldrb	r1, [r5, #4]
   0x1fff27f0:	0649    	lsls	r1, r1, #25
   0x1fff27f2:	0f89    	lsrs	r1, r1, #30
   0x1fff27f4:	d004    	beq.n	0x1fff2800
   0x1fff27f6:	2901    	cmp	r1, #1
   0x1fff27f8:	d063    	beq.n	0x1fff28c2
   0x1fff27fa:	2902    	cmp	r1, #2
   0x1fff27fc:	d161    	bne.n	0x1fff28c2
   0x1fff27fe:	e051    	b.n	0x1fff28a4
   0x1fff2800:	796b    	ldrb	r3, [r5, #5]
   0x1fff2802:	f7ff f807	bl	0x1fff1814
   0x1fff2806:	070c    	lsls	r4, r1, #28
   0x1fff2808:	5e0d    	ldrsh	r5, [r1, r0]
   0x1fff280a:	5e18    	ldrsh	r0, [r3, r0]
   0x1fff280c:	281f    	cmp	r0, #31
   0x1fff280e:	312a    	adds	r1, #42	@ 0x2a
   0x1fff2810:	3f33    	subs	r7, #51	@ 0x33
   0x1fff2812:	5e45    	ldrsh	r5, [r0, r1]
   0x1fff2814:	68e1    	ldr	r1, [r4, #12]
   0x1fff2816:	e036    	b.n	0x1fff2886
   0x1fff2818:	4620    	mov	r0, r4
   0x1fff281a:	f7ff fd10	bl	0x1fff223e
   0x1fff281e:	e055    	b.n	0x1fff28cc
   0x1fff2820:	2100    	movs	r1, #0
   0x1fff2822:	6a62    	ldr	r2, [r4, #36]	@ 0x24
   0x1fff2824:	e009    	b.n	0x1fff283a
   0x1fff2826:	4620    	mov	r0, r4
   0x1fff2828:	f7ff fd30	bl	0x1fff228c
   0x1fff282c:	6ce1    	ldr	r1, [r4, #76]	@ 0x4c
   0x1fff282e:	e026    	b.n	0x1fff287e
   0x1fff2830:	4620    	mov	r0, r4
   0x1fff2832:	4788    	blx	r1
   0x1fff2834:	e04a    	b.n	0x1fff28cc
   0x1fff2836:	6a62    	ldr	r2, [r4, #36]	@ 0x24
   0x1fff2838:	2101    	movs	r1, #1
   0x1fff283a:	4620    	mov	r0, r4
   0x1fff283c:	4790    	blx	r2
   0x1fff283e:	2800    	cmp	r0, #0
   0x1fff2840:	d0f1    	beq.n	0x1fff2826
   0x1fff2842:	e040    	b.n	0x1fff28c6
   0x1fff2844:	4620    	mov	r0, r4
   0x1fff2846:	f7ff fdc4	bl	0x1fff23d2
   0x1fff284a:	2800    	cmp	r0, #0
   0x1fff284c:	d13b    	bne.n	0x1fff28c6
   0x1fff284e:	4620    	mov	r0, r4
   0x1fff2850:	f7ff fd1c	bl	0x1fff228c
   0x1fff2854:	e03a    	b.n	0x1fff28cc
   0x1fff2856:	6921    	ldr	r1, [r4, #16]
   0x1fff2858:	e015    	b.n	0x1fff2886
   0x1fff285a:	2100    	movs	r1, #0
   0x1fff285c:	4620    	mov	r0, r4
   0x1fff285e:	f000 fbfe	bl	0x1fff305e
   0x1fff2862:	2000    	movs	r0, #0
   0x1fff2864:	8030    	strh	r0, [r6, #0]
   0x1fff2866:	e031    	b.n	0x1fff28cc
   0x1fff2868:	6961    	ldr	r1, [r4, #20]
   0x1fff286a:	e00c    	b.n	0x1fff2886
   0x1fff286c:	69a1    	ldr	r1, [r4, #24]
   0x1fff286e:	4620    	mov	r0, r4
   0x1fff2870:	4788    	blx	r1
   0x1fff2872:	2800    	cmp	r0, #0
   0x1fff2874:	d127    	bne.n	0x1fff28c6
   0x1fff2876:	4620    	mov	r0, r4
   0x1fff2878:	f7ff fd08	bl	0x1fff228c
   0x1fff287c:	6c61    	ldr	r1, [r4, #68]	@ 0x44
   0x1fff287e:	2900    	cmp	r1, #0
   0x1fff2880:	d1d6    	bne.n	0x1fff2830
   0x1fff2882:	e023    	b.n	0x1fff28cc
   0x1fff2884:	69e1    	ldr	r1, [r4, #28]
   0x1fff2886:	4620    	mov	r0, r4
   0x1fff2888:	4788    	blx	r1
   0x1fff288a:	2800    	cmp	r0, #0
   0x1fff288c:	d0c4    	beq.n	0x1fff2818
   0x1fff288e:	e01a    	b.n	0x1fff28c6
   0x1fff2890:	6a21    	ldr	r1, [r4, #32]
   0x1fff2892:	4620    	mov	r0, r4
   0x1fff2894:	4788    	blx	r1
   0x1fff2896:	2800    	cmp	r0, #0
   0x1fff2898:	d115    	bne.n	0x1fff28c6
   0x1fff289a:	4620    	mov	r0, r4
   0x1fff289c:	f7ff fcf6	bl	0x1fff228c
   0x1fff28a0:	6ca1    	ldr	r1, [r4, #72]	@ 0x48
   0x1fff28a2:	e7ec    	b.n	0x1fff287e
   0x1fff28a4:	68a2    	ldr	r2, [r4, #8]
   0x1fff28a6:	2a00    	cmp	r2, #0
   0x1fff28a8:	d00b    	beq.n	0x1fff28c2
   0x1fff28aa:	2101    	movs	r1, #1
   0x1fff28ac:	4620    	mov	r0, r4
   0x1fff28ae:	4790    	blx	r2
   0x1fff28b0:	2800    	cmp	r0, #0
   0x1fff28b2:	d108    	bne.n	0x1fff28c6
   0x1fff28b4:	8968    	ldrh	r0, [r5, #10]
   0x1fff28b6:	2800    	cmp	r0, #0
   0x1fff28b8:	d0c9    	beq.n	0x1fff284e
   0x1fff28ba:	7928    	ldrb	r0, [r5, #4]
   0x1fff28bc:	09c0    	lsrs	r0, r0, #7
   0x1fff28be:	d1ab    	bne.n	0x1fff2818
   0x1fff28c0:	e004    	b.n	0x1fff28cc
   0x1fff28c2:	2800    	cmp	r0, #0
   0x1fff28c4:	d002    	beq.n	0x1fff28cc
   0x1fff28c6:	4620    	mov	r0, r4
   0x1fff28c8:	f7ff fc76	bl	0x1fff21b8
   0x1fff28cc:	2000    	movs	r0, #0
   0x1fff28ce:	bdf8    	pop	{r3, r4, r5, r6, r7, pc}
   0x1fff28d0:	b570    	push	{r4, r5, r6, lr}
   0x1fff28d2:	4605    	mov	r5, r0
   0x1fff28d4:	35ff    	adds	r5, #255	@ 0xff
   0x1fff28d6:	4604    	mov	r4, r0
   0x1fff28d8:	3561    	adds	r5, #97	@ 0x61
   0x1fff28da:	7928    	ldrb	r0, [r5, #4]
   0x1fff28dc:	09c0    	lsrs	r0, r0, #7
   0x1fff28de:	d004    	beq.n	0x1fff28ea
   0x1fff28e0:	4620    	mov	r0, r4
   0x1fff28e2:	f7ff fcda	bl	0x1fff229a
   0x1fff28e6:	2000    	movs	r0, #0
   0x1fff28e8:	bd70    	pop	{r4, r5, r6, pc}
   0x1fff28ea:	4626    	mov	r6, r4
   0x1fff28ec:	36ff    	adds	r6, #255	@ 0xff
   0x1fff28ee:	3621    	adds	r6, #33	@ 0x21
   0x1fff28f0:	8830    	ldrh	r0, [r6, #0]
   0x1fff28f2:	2800    	cmp	r0, #0
   0x1fff28f4:	d0f7    	beq.n	0x1fff28e6
   0x1fff28f6:	4620    	mov	r0, r4
   0x1fff28f8:	f7ff fcb7	bl	0x1fff226a
   0x1fff28fc:	8830    	ldrh	r0, [r6, #0]
   0x1fff28fe:	2800    	cmp	r0, #0
   0x1fff2900:	d1f1    	bne.n	0x1fff28e6
   0x1fff2902:	2102    	movs	r1, #2
   0x1fff2904:	4620    	mov	r0, r4
   0x1fff2906:	f7ff fc61	bl	0x1fff21cc
   0x1fff290a:	4948    	ldr	r1, [pc, #288]	@ (0x1fff2a2c)
   0x1fff290c:	1c49    	adds	r1, r1, #1
   0x1fff290e:	4288    	cmp	r0, r1
   0x1fff2910:	d1ea    	bne.n	0x1fff28e8
   0x1fff2912:	7928    	ldrb	r0, [r5, #4]
   0x1fff2914:	0640    	lsls	r0, r0, #25
   0x1fff2916:	0f80    	lsrs	r0, r0, #30
   0x1fff2918:	2802    	cmp	r0, #2
   0x1fff291a:	d107    	bne.n	0x1fff292c
   0x1fff291c:	68a2    	ldr	r2, [r4, #8]
   0x1fff291e:	2a00    	cmp	r2, #0
   0x1fff2920:	d004    	beq.n	0x1fff292c
   0x1fff2922:	2101    	movs	r1, #1
   0x1fff2924:	4620    	mov	r0, r4
   0x1fff2926:	4790    	blx	r2
   0x1fff2928:	2800    	cmp	r0, #0
   0x1fff292a:	d003    	beq.n	0x1fff2934
   0x1fff292c:	4620    	mov	r0, r4
   0x1fff292e:	f7ff fc43	bl	0x1fff21b8
   0x1fff2932:	e7d8    	b.n	0x1fff28e6
   0x1fff2934:	4620    	mov	r0, r4
   0x1fff2936:	f7ff fca9	bl	0x1fff228c
   0x1fff293a:	e7d4    	b.n	0x1fff28e6
   0x1fff293c:	b570    	push	{r4, r5, r6, lr}
   0x1fff293e:	4e3b    	ldr	r6, [pc, #236]	@ (0x1fff2a2c)
   0x1fff2940:	4605    	mov	r5, r0
   0x1fff2942:	35ff    	adds	r5, #255	@ 0xff
   0x1fff2944:	4604    	mov	r4, r0
   0x1fff2946:	1c76    	adds	r6, r6, #1
   0x1fff2948:	4613    	mov	r3, r2
   0x1fff294a:	3561    	adds	r5, #97	@ 0x61
   0x1fff294c:	f7fe ff62	bl	0x1fff1814
   0x1fff2950:	3f08    	subs	r7, #8
   0x1fff2952:	1e05    	subs	r5, r0, #0
   0x1fff2954:	0721    	lsls	r1, r4, #28
   0x1fff2956:	3a3f    	subs	r2, #63	@ 0x3f
   0x1fff2958:	3f3c    	subs	r7, #60	@ 0x3c
   0x1fff295a:	6821    	ldr	r1, [r4, #0]
   0x1fff295c:	e017    	b.n	0x1fff298e
   0x1fff295e:	2104    	movs	r1, #4
   0x1fff2960:	f7ff fc34	bl	0x1fff21cc
   0x1fff2964:	42b0    	cmp	r0, r6
   0x1fff2966:	d132    	bne.n	0x1fff29ce
   0x1fff2968:	7928    	ldrb	r0, [r5, #4]
   0x1fff296a:	09c1    	lsrs	r1, r0, #7
   0x1fff296c:	1de0    	adds	r0, r4, #7
   0x1fff296e:	30f9    	adds	r0, #249	@ 0xf9
   0x1fff2970:	2900    	cmp	r1, #0
   0x1fff2972:	d006    	beq.n	0x1fff2982
   0x1fff2974:	69c2    	ldr	r2, [r0, #28]
   0x1fff2976:	2300    	movs	r3, #0
   0x1fff2978:	2100    	movs	r1, #0
   0x1fff297a:	4620    	mov	r0, r4
   0x1fff297c:	f000 fc79	bl	0x1fff3272
   0x1fff2980:	e025    	b.n	0x1fff29ce
   0x1fff2982:	21ff    	movs	r1, #255	@ 0xff
   0x1fff2984:	3121    	adds	r1, #33	@ 0x21
   0x1fff2986:	5b0b    	ldrh	r3, [r1, r4]
   0x1fff2988:	69c2    	ldr	r2, [r0, #28]
   0x1fff298a:	e7f5    	b.n	0x1fff2978
   0x1fff298c:	6861    	ldr	r1, [r4, #4]
   0x1fff298e:	4788    	blx	r1
   0x1fff2990:	e01d    	b.n	0x1fff29ce
   0x1fff2992:	7928    	ldrb	r0, [r5, #4]
   0x1fff2994:	09c0    	lsrs	r0, r0, #7
   0x1fff2996:	d009    	beq.n	0x1fff29ac
   0x1fff2998:	2103    	movs	r1, #3
   0x1fff299a:	4620    	mov	r0, r4
   0x1fff299c:	f7ff fc16	bl	0x1fff21cc
   0x1fff29a0:	42b0    	cmp	r0, r6
   0x1fff29a2:	d114    	bne.n	0x1fff29ce
   0x1fff29a4:	4620    	mov	r0, r4
   0x1fff29a6:	f7ff fc4a	bl	0x1fff223e
   0x1fff29aa:	e010    	b.n	0x1fff29ce
   0x1fff29ac:	4622    	mov	r2, r4
   0x1fff29ae:	32e0    	adds	r2, #224	@ 0xe0
   0x1fff29b0:	7b10    	ldrb	r0, [r2, #12]
   0x1fff29b2:	0601    	lsls	r1, r0, #24
   0x1fff29b4:	d50b    	bpl.n	0x1fff29ce
   0x1fff29b6:	0641    	lsls	r1, r0, #25
   0x1fff29b8:	0e49    	lsrs	r1, r1, #25
   0x1fff29ba:	7311    	strb	r1, [r2, #12]
   0x1fff29bc:	4620    	mov	r0, r4
   0x1fff29be:	f000 fa92	bl	0x1fff2ee6
   0x1fff29c2:	e004    	b.n	0x1fff29ce
   0x1fff29c4:	2100    	movs	r1, #0
   0x1fff29c6:	e000    	b.n	0x1fff29ca
   0x1fff29c8:	2180    	movs	r1, #128	@ 0x80
   0x1fff29ca:	f000 fb79	bl	0x1fff30c0
   0x1fff29ce:	2000    	movs	r0, #0
   0x1fff29d0:	bd70    	pop	{r4, r5, r6, pc}
   0x1fff29d2:	4770    	bx	lr
   0x1fff29d4:	4770    	bx	lr
   0x1fff29d6:	b510    	push	{r4, lr}
   0x1fff29d8:	24e9    	movs	r4, #233	@ 0xe9
   0x1fff29da:	5c24    	ldrb	r4, [r4, r0]
   0x1fff29dc:	0064    	lsls	r4, r4, #1
   0x1fff29de:	428c    	cmp	r4, r1
   0x1fff29e0:	d202    	bcs.n	0x1fff29e8
   0x1fff29e2:	4811    	ldr	r0, [pc, #68]	@ (0x1fff2a28)
   0x1fff29e4:	1c80    	adds	r0, r0, #2
   0x1fff29e6:	bd10    	pop	{r4, pc}
   0x1fff29e8:	0089    	lsls	r1, r1, #2
   0x1fff29ea:	1808    	adds	r0, r1, r0
   0x1fff29ec:	6582    	str	r2, [r0, #88]	@ 0x58
   0x1fff29ee:	3080    	adds	r0, #128	@ 0x80
   0x1fff29f0:	6003    	str	r3, [r0, #0]
   0x1fff29f2:	2000    	movs	r0, #0
   0x1fff29f4:	bd10    	pop	{r4, pc}
   0x1fff29f6:	b570    	push	{r4, r5, r6, lr}
   0x1fff29f8:	460e    	mov	r6, r1
   0x1fff29fa:	21ff    	movs	r1, #255	@ 0xff
   0x1fff29fc:	4615    	mov	r5, r2
   0x1fff29fe:	4604    	mov	r4, r0
   0x1fff2a00:	316d    	adds	r1, #109	@ 0x6d
   0x1fff2a02:	f001 fa90	bl	0x1fff3f26
   0x1fff2a06:	7b29    	ldrb	r1, [r5, #12]
   0x1fff2a08:	20e9    	movs	r0, #233	@ 0xe9
   0x1fff2a0a:	5501    	strb	r1, [r0, r4]
   0x1fff2a0c:	4623    	mov	r3, r4
   0x1fff2a0e:	4a08    	ldr	r2, [pc, #32]	@ (0x1fff2a30)
   0x1fff2a10:	2100    	movs	r1, #0
   0x1fff2a12:	4618    	mov	r0, r3
   0x1fff2a14:	f7ff ffdf	bl	0x1fff29d6
   0x1fff2a18:	4623    	mov	r3, r4
   0x1fff2a1a:	4a05    	ldr	r2, [pc, #20]	@ (0x1fff2a30)
   0x1fff2a1c:	2101    	movs	r1, #1
   0x1fff2a1e:	4618    	mov	r0, r3
   0x1fff2a20:	f7ff ffd9	bl	0x1fff29d6
   0x1fff2a24:	e006    	b.n	0x1fff2a34
   0x1fff2a26:	0000    	movs	r0, r0
   0x1fff2a28:	0001    	movs	r1, r0
   0x1fff2a2a:	0001    	movs	r1, r0
   0x1fff2a2c:	0001    	movs	r1, r0
   0x1fff2a2e:	0004    	movs	r4, r0
   0x1fff2a30:	293d    	cmp	r1, #61	@ 0x3d
   0x1fff2a32:	1fff    	subs	r7, r7, #7
   0x1fff2a34:	482b    	ldr	r0, [pc, #172]	@ (0x1fff2ae4)
   0x1fff2a36:	6020    	str	r0, [r4, #0]
   0x1fff2a38:	482b    	ldr	r0, [pc, #172]	@ (0x1fff2ae8)
   0x1fff2a3a:	6060    	str	r0, [r4, #4]
   0x1fff2a3c:	482b    	ldr	r0, [pc, #172]	@ (0x1fff2aec)
   0x1fff2a3e:	60e0    	str	r0, [r4, #12]
   0x1fff2a40:	482b    	ldr	r0, [pc, #172]	@ (0x1fff2af0)
   0x1fff2a42:	6260    	str	r0, [r4, #36]	@ 0x24
   0x1fff2a44:	482b    	ldr	r0, [pc, #172]	@ (0x1fff2af4)
   0x1fff2a46:	6120    	str	r0, [r4, #16]
   0x1fff2a48:	482b    	ldr	r0, [pc, #172]	@ (0x1fff2af8)
   0x1fff2a4a:	6160    	str	r0, [r4, #20]
   0x1fff2a4c:	482b    	ldr	r0, [pc, #172]	@ (0x1fff2afc)
   0x1fff2a4e:	61a0    	str	r0, [r4, #24]
   0x1fff2a50:	482b    	ldr	r0, [pc, #172]	@ (0x1fff2b00)
   0x1fff2a52:	61e0    	str	r0, [r4, #28]
   0x1fff2a54:	482b    	ldr	r0, [pc, #172]	@ (0x1fff2b04)
   0x1fff2a56:	6220    	str	r0, [r4, #32]
   0x1fff2a58:	6be9    	ldr	r1, [r5, #60]	@ 0x3c
   0x1fff2a5a:	482b    	ldr	r0, [pc, #172]	@ (0x1fff2b08)
   0x1fff2a5c:	2900    	cmp	r1, #0
   0x1fff2a5e:	d000    	beq.n	0x1fff2a62
   0x1fff2a60:	4608    	mov	r0, r1
   0x1fff2a62:	6520    	str	r0, [r4, #80]	@ 0x50
   0x1fff2a64:	6c29    	ldr	r1, [r5, #64]	@ 0x40
   0x1fff2a66:	4829    	ldr	r0, [pc, #164]	@ (0x1fff2b0c)
   0x1fff2a68:	2900    	cmp	r1, #0
   0x1fff2a6a:	d000    	beq.n	0x1fff2a6e
   0x1fff2a6c:	4608    	mov	r0, r1
   0x1fff2a6e:	6560    	str	r0, [r4, #84]	@ 0x54
   0x1fff2a70:	6a68    	ldr	r0, [r5, #36]	@ 0x24
   0x1fff2a72:	6420    	str	r0, [r4, #64]	@ 0x40
   0x1fff2a74:	6aa8    	ldr	r0, [r5, #40]	@ 0x28
   0x1fff2a76:	63a0    	str	r0, [r4, #56]	@ 0x38
   0x1fff2a78:	6928    	ldr	r0, [r5, #16]
   0x1fff2a7a:	62a0    	str	r0, [r4, #40]	@ 0x28
   0x1fff2a7c:	6968    	ldr	r0, [r5, #20]
   0x1fff2a7e:	62e0    	str	r0, [r4, #44]	@ 0x2c
   0x1fff2a80:	69a8    	ldr	r0, [r5, #24]
   0x1fff2a82:	6320    	str	r0, [r4, #48]	@ 0x30
   0x1fff2a84:	6a28    	ldr	r0, [r5, #32]
   0x1fff2a86:	6360    	str	r0, [r4, #52]	@ 0x34
   0x1fff2a88:	6ae8    	ldr	r0, [r5, #44]	@ 0x2c
   0x1fff2a8a:	63e0    	str	r0, [r4, #60]	@ 0x3c
   0x1fff2a8c:	6b28    	ldr	r0, [r5, #48]	@ 0x30
   0x1fff2a8e:	6460    	str	r0, [r4, #68]	@ 0x44
   0x1fff2a90:	6b68    	ldr	r0, [r5, #52]	@ 0x34
   0x1fff2a92:	64a0    	str	r0, [r4, #72]	@ 0x48
   0x1fff2a94:	6ba8    	ldr	r0, [r5, #56]	@ 0x38
   0x1fff2a96:	64e0    	str	r0, [r4, #76]	@ 0x4c
   0x1fff2a98:	4620    	mov	r0, r4
   0x1fff2a9a:	30c0    	adds	r0, #192	@ 0xc0
   0x1fff2a9c:	6831    	ldr	r1, [r6, #0]
   0x1fff2a9e:	6301    	str	r1, [r0, #48]	@ 0x30
   0x1fff2aa0:	6871    	ldr	r1, [r6, #4]
   0x1fff2aa2:	6341    	str	r1, [r0, #52]	@ 0x34
   0x1fff2aa4:	68b1    	ldr	r1, [r6, #8]
   0x1fff2aa6:	6381    	str	r1, [r0, #56]	@ 0x38
   0x1fff2aa8:	68f1    	ldr	r1, [r6, #12]
   0x1fff2aaa:	63c1    	str	r1, [r0, #60]	@ 0x3c
   0x1fff2aac:	34ff    	adds	r4, #255	@ 0xff
   0x1fff2aae:	3401    	adds	r4, #1
   0x1fff2ab0:	6930    	ldr	r0, [r6, #16]
   0x1fff2ab2:	6020    	str	r0, [r4, #0]
   0x1fff2ab4:	bd70    	pop	{r4, r5, r6, pc}
   0x1fff2ab6:	b510    	push	{r4, lr}
   0x1fff2ab8:	4603    	mov	r3, r0
   0x1fff2aba:	33e0    	adds	r3, #224	@ 0xe0
   0x1fff2abc:	7a1c    	ldrb	r4, [r3, #8]
   0x1fff2abe:	2c08    	cmp	r4, #8
   0x1fff2ac0:	d301    	bcc.n	0x1fff2ac6
   0x1fff2ac2:	4813    	ldr	r0, [pc, #76]	@ (0x1fff2b10)
   0x1fff2ac4:	bd10    	pop	{r4, pc}
   0x1fff2ac6:	00a4    	lsls	r4, r4, #2
   0x1fff2ac8:	1824    	adds	r4, r4, r0
   0x1fff2aca:	3480    	adds	r4, #128	@ 0x80
   0x1fff2acc:	62a1    	str	r1, [r4, #40]	@ 0x28
   0x1fff2ace:	7a19    	ldrb	r1, [r3, #8]
   0x1fff2ad0:	0089    	lsls	r1, r1, #2
   0x1fff2ad2:	1808    	adds	r0, r1, r0
   0x1fff2ad4:	30c0    	adds	r0, #192	@ 0xc0
   0x1fff2ad6:	6082    	str	r2, [r0, #8]
   0x1fff2ad8:	7a18    	ldrb	r0, [r3, #8]
   0x1fff2ada:	1c40    	adds	r0, r0, #1
   0x1fff2adc:	7218    	strb	r0, [r3, #8]
   0x1fff2ade:	2000    	movs	r0, #0
   0x1fff2ae0:	bd10    	pop	{r4, pc}
   0x1fff2ae2:	0000    	movs	r0, r0
   0x1fff2ae4:	27bf    	movs	r7, #191	@ 0xbf
   0x1fff2ae6:	1fff    	subs	r7, r7, #7
   0x1fff2ae8:	28d1    	cmp	r0, #209	@ 0xd1
   0x1fff2aea:	1fff    	subs	r7, r7, #7
   0x1fff2aec:	22ab    	movs	r2, #171	@ 0xab
   0x1fff2aee:	1fff    	subs	r7, r7, #7
   0x1fff2af0:	2329    	movs	r3, #41	@ 0x29
   0x1fff2af2:	1fff    	subs	r7, r7, #7
   0x1fff2af4:	23f3    	movs	r3, #243	@ 0xf3
   0x1fff2af6:	1fff    	subs	r7, r7, #7
   0x1fff2af8:	2491    	movs	r4, #145	@ 0x91
   0x1fff2afa:	1fff    	subs	r7, r7, #7
   0x1fff2afc:	24ad    	movs	r4, #173	@ 0xad
   0x1fff2afe:	1fff    	subs	r7, r7, #7
   0x1fff2b00:	2651    	movs	r6, #81	@ 0x51
   0x1fff2b02:	1fff    	subs	r7, r7, #7
   0x1fff2b04:	268d    	movs	r6, #141	@ 0x8d
   0x1fff2b06:	1fff    	subs	r7, r7, #7
   0x1fff2b08:	29d3    	cmp	r1, #211	@ 0xd3
   0x1fff2b0a:	1fff    	subs	r7, r7, #7
   0x1fff2b0c:	29d5    	cmp	r1, #213	@ 0xd5
   0x1fff2b0e:	1fff    	subs	r7, r7, #7
   0x1fff2b10:	000b    	movs	r3, r1
   0x1fff2b12:	0004    	movs	r4, r0
   0x1fff2b14:	b530    	push	{r4, r5, lr}
   0x1fff2b16:	788c    	ldrb	r4, [r1, #2]
   0x1fff2b18:	6885    	ldr	r5, [r0, #8]
   0x1fff2b1a:	00e4    	lsls	r4, r4, #3
   0x1fff2b1c:	1d24    	adds	r4, r4, #4
   0x1fff2b1e:	592c    	ldr	r4, [r5, r4]
   0x1fff2b20:	6014    	str	r4, [r2, #0]
   0x1fff2b22:	7889    	ldrb	r1, [r1, #2]
   0x1fff2b24:	6880    	ldr	r0, [r0, #8]
   0x1fff2b26:	00c9    	lsls	r1, r1, #3
   0x1fff2b28:	5a40    	ldrh	r0, [r0, r1]
   0x1fff2b2a:	8018    	strh	r0, [r3, #0]
   0x1fff2b2c:	2000    	movs	r0, #0
   0x1fff2b2e:	bd30    	pop	{r4, r5, pc}
   0x1fff2b30:	6882    	ldr	r2, [r0, #8]
   0x1fff2b32:	6801    	ldr	r1, [r0, #0]
   0x1fff2b34:	20ff    	movs	r0, #255	@ 0xff
   0x1fff2b36:	3067    	adds	r0, #103	@ 0x67
   0x1fff2b38:	5c40    	ldrb	r0, [r0, r1]
   0x1fff2b3a:	31ff    	adds	r1, #255	@ 0xff
   0x1fff2b3c:	00c0    	lsls	r0, r0, #3
   0x1fff2b3e:	1c80    	adds	r0, r0, #2
   0x1fff2b40:	5c10    	ldrb	r0, [r2, r0]
   0x1fff2b42:	3121    	adds	r1, #33	@ 0x21
   0x1fff2b44:	7108    	strb	r0, [r1, #4]
   0x1fff2b46:	2000    	movs	r0, #0
   0x1fff2b48:	4770    	bx	lr
   0x1fff2b4a:	b430    	push	{r4, r5}
   0x1fff2b4c:	6801    	ldr	r1, [r0, #0]
   0x1fff2b4e:	6884    	ldr	r4, [r0, #8]
   0x1fff2b50:	460b    	mov	r3, r1
   0x1fff2b52:	33ff    	adds	r3, #255	@ 0xff
   0x1fff2b54:	3361    	adds	r3, #97	@ 0x61
   0x1fff2b56:	79da    	ldrb	r2, [r3, #7]
   0x1fff2b58:	799b    	ldrb	r3, [r3, #6]
   0x1fff2b5a:	00db    	lsls	r3, r3, #3
   0x1fff2b5c:	1c9b    	adds	r3, r3, #2
   0x1fff2b5e:	54e2    	strb	r2, [r4, r3]
   0x1fff2b60:	69c3    	ldr	r3, [r0, #28]
   0x1fff2b62:	2b00    	cmp	r3, #0
   0x1fff2b64:	d003    	beq.n	0x1fff2b6e
   0x1fff2b66:	31ff    	adds	r1, #255	@ 0xff
   0x1fff2b68:	bc30    	pop	{r4, r5}
   0x1fff2b6a:	3165    	adds	r1, #101	@ 0x65
   0x1fff2b6c:	4718    	bx	r3
   0x1fff2b6e:	bc30    	pop	{r4, r5}
   0x1fff2b70:	2000    	movs	r0, #0
   0x1fff2b72:	4770    	bx	lr
   0x1fff2b74:	7b01    	ldrb	r1, [r0, #12]
   0x1fff2b76:	6800    	ldr	r0, [r0, #0]
   0x1fff2b78:	30ff    	adds	r0, #255	@ 0xff
   0x1fff2b7a:	3021    	adds	r0, #33	@ 0x21
   0x1fff2b7c:	7101    	strb	r1, [r0, #4]
   0x1fff2b7e:	2000    	movs	r0, #0
   0x1fff2b80:	4770    	bx	lr
   0x1fff2b82:	22ff    	movs	r2, #255	@ 0xff
   0x1fff2b84:	6801    	ldr	r1, [r0, #0]
   0x1fff2b86:	3267    	adds	r2, #103	@ 0x67
   0x1fff2b88:	5c52    	ldrb	r2, [r2, r1]
   0x1fff2b8a:	7302    	strb	r2, [r0, #12]
   0x1fff2b8c:	6a03    	ldr	r3, [r0, #32]
   0x1fff2b8e:	2b00    	cmp	r3, #0
   0x1fff2b90:	d002    	beq.n	0x1fff2b98
   0x1fff2b92:	31ff    	adds	r1, #255	@ 0xff
   0x1fff2b94:	3165    	adds	r1, #101	@ 0x65
   0x1fff2b96:	4718    	bx	r3
   0x1fff2b98:	2000    	movs	r0, #0
   0x1fff2b9a:	4770    	bx	lr
   0x1fff2b9c:	b5f0    	push	{r4, r5, r6, r7, lr}
   0x1fff2b9e:	4603    	mov	r3, r0
   0x1fff2ba0:	b085    	sub	sp, #20
   0x1fff2ba2:	4608    	mov	r0, r1
   0x1fff2ba4:	2100    	movs	r1, #0
   0x1fff2ba6:	466d    	mov	r5, sp
   0x1fff2ba8:	9302    	str	r3, [sp, #8]
   0x1fff2baa:	81a9    	strh	r1, [r5, #12]
   0x1fff2bac:	9f02    	ldr	r7, [sp, #8]
   0x1fff2bae:	7b45    	ldrb	r5, [r0, #13]
   0x1fff2bb0:	37ff    	adds	r7, #255	@ 0xff
   0x1fff2bb2:	3761    	adds	r7, #97	@ 0x61
   0x1fff2bb4:	7a39    	ldrb	r1, [r7, #8]
   0x1fff2bb6:	4ca3    	ldr	r4, [pc, #652]	@ (0x1fff2e44)
   0x1fff2bb8:	42a9    	cmp	r1, r5
   0x1fff2bba:	d11e    	bne.n	0x1fff2bfa
   0x1fff2bbc:	4619    	mov	r1, r3
   0x1fff2bbe:	31ff    	adds	r1, #255	@ 0xff
   0x1fff2bc0:	3165    	adds	r1, #101	@ 0x65
   0x1fff2bc2:	1ddd    	adds	r5, r3, #7
   0x1fff2bc4:	460e    	mov	r6, r1
   0x1fff2bc6:	35f9    	adds	r5, #249	@ 0xf9
   0x1fff2bc8:	3e40    	subs	r6, #64	@ 0x40
   0x1fff2bca:	9101    	str	r1, [sp, #4]
   0x1fff2bcc:	2a01    	cmp	r2, #1
   0x1fff2bce:	d002    	beq.n	0x1fff2bd6
   0x1fff2bd0:	2a02    	cmp	r2, #2
   0x1fff2bd2:	d112    	bne.n	0x1fff2bfa
   0x1fff2bd4:	e069    	b.n	0x1fff2caa
   0x1fff2bd6:	7939    	ldrb	r1, [r7, #4]
   0x1fff2bd8:	06ca    	lsls	r2, r1, #27
   0x1fff2bda:	0ed2    	lsrs	r2, r2, #27
   0x1fff2bdc:	2a01    	cmp	r2, #1
   0x1fff2bde:	d10c    	bne.n	0x1fff2bfa
   0x1fff2be0:	461a    	mov	r2, r3
   0x1fff2be2:	32ff    	adds	r2, #255	@ 0xff
   0x1fff2be4:	0649    	lsls	r1, r1, #25
   0x1fff2be6:	321d    	adds	r2, #29
   0x1fff2be8:	468c    	mov	r12, r1
   0x1fff2bea:	1d13    	adds	r3, r2, #4
   0x1fff2bec:	0f89    	lsrs	r1, r1, #30
   0x1fff2bee:	9300    	str	r3, [sp, #0]
   0x1fff2bf0:	2901    	cmp	r1, #1
   0x1fff2bf2:	d003    	beq.n	0x1fff2bfc
   0x1fff2bf4:	4661    	mov	r1, r12
   0x1fff2bf6:	0f89    	lsrs	r1, r1, #30
   0x1fff2bf8:	d02b    	beq.n	0x1fff2c52
   0x1fff2bfa:	e076    	b.n	0x1fff2cea
   0x1fff2bfc:	797b    	ldrb	r3, [r7, #5]
   0x1fff2bfe:	f7fe fe09	bl	0x1fff1814
   0x1fff2c02:	740c    	strb	r4, [r1, #16]
   0x1fff2c04:	1607    	asrs	r7, r0, #24
   0x1fff2c06:	741e    	strb	r6, [r3, #16]
   0x1fff2c08:	7474    	strb	r4, [r6, #17]
   0x1fff2c0a:	7474    	strb	r4, [r6, #17]
   0x1fff2c0c:	1b0f    	subs	r7, r1, r4
   0x1fff2c0e:	7423    	strb	r3, [r4, #16]
   0x1fff2c10:	61ee    	str	r6, [r5, #28]
   0x1fff2c12:	6904    	ldr	r4, [r0, #16]
   0x1fff2c14:	9b00    	ldr	r3, [sp, #0]
   0x1fff2c16:	9901    	ldr	r1, [sp, #4]
   0x1fff2c18:	47a0    	blx	r4
   0x1fff2c1a:	0004    	movs	r4, r0
   0x1fff2c1c:	d041    	beq.n	0x1fff2ca2
   0x1fff2c1e:	e064    	b.n	0x1fff2cea
   0x1fff2c20:	61ee    	str	r6, [r5, #28]
   0x1fff2c22:	6944    	ldr	r4, [r0, #20]
   0x1fff2c24:	2300    	movs	r3, #0
   0x1fff2c26:	9901    	ldr	r1, [sp, #4]
   0x1fff2c28:	47a0    	blx	r4
   0x1fff2c2a:	4604    	mov	r4, r0
   0x1fff2c2c:	e05d    	b.n	0x1fff2cea
   0x1fff2c2e:	f7ff ff7f	bl	0x1fff2b30
   0x1fff2c32:	e006    	b.n	0x1fff2c42
   0x1fff2c34:	61ee    	str	r6, [r5, #28]
   0x1fff2c36:	e034    	b.n	0x1fff2ca2
   0x1fff2c38:	f7ff ff87	bl	0x1fff2b4a
   0x1fff2c3c:	e006    	b.n	0x1fff2c4c
   0x1fff2c3e:	f7ff ff99	bl	0x1fff2b74
   0x1fff2c42:	0004    	movs	r4, r0
   0x1fff2c44:	d0f6    	beq.n	0x1fff2c34
   0x1fff2c46:	e050    	b.n	0x1fff2cea
   0x1fff2c48:	f7ff ff9b	bl	0x1fff2b82
   0x1fff2c4c:	0004    	movs	r4, r0
   0x1fff2c4e:	d049    	beq.n	0x1fff2ce4
   0x1fff2c50:	e04b    	b.n	0x1fff2cea
   0x1fff2c52:	7979    	ldrb	r1, [r7, #5]
   0x1fff2c54:	2906    	cmp	r1, #6
   0x1fff2c56:	d148    	bne.n	0x1fff2cea
   0x1fff2c58:	79f9    	ldrb	r1, [r7, #7]
   0x1fff2c5a:	2921    	cmp	r1, #33	@ 0x21
   0x1fff2c5c:	d004    	beq.n	0x1fff2c68
   0x1fff2c5e:	2922    	cmp	r1, #34	@ 0x22
   0x1fff2c60:	d00a    	beq.n	0x1fff2c78
   0x1fff2c62:	2923    	cmp	r1, #35	@ 0x23
   0x1fff2c64:	d141    	bne.n	0x1fff2cea
   0x1fff2c66:	e009    	b.n	0x1fff2c7c
   0x1fff2c68:	6841    	ldr	r1, [r0, #4]
   0x1fff2c6a:	61e9    	str	r1, [r5, #28]
   0x1fff2c6c:	6840    	ldr	r0, [r0, #4]
   0x1fff2c6e:	4669    	mov	r1, sp
   0x1fff2c70:	7800    	ldrb	r0, [r0, #0]
   0x1fff2c72:	8188    	strh	r0, [r1, #12]
   0x1fff2c74:	2400    	movs	r4, #0
   0x1fff2c76:	e00d    	b.n	0x1fff2c94
   0x1fff2c78:	6a44    	ldr	r4, [r0, #36]	@ 0x24
   0x1fff2c7a:	e002    	b.n	0x1fff2c82
   0x1fff2c7c:	6984    	ldr	r4, [r0, #24]
   0x1fff2c7e:	2c00    	cmp	r4, #0
   0x1fff2c80:	d005    	beq.n	0x1fff2c8e
   0x1fff2c82:	ab03    	add	r3, sp, #12
   0x1fff2c84:	9901    	ldr	r1, [sp, #4]
   0x1fff2c86:	47a0    	blx	r4
   0x1fff2c88:	0004    	movs	r4, r0
   0x1fff2c8a:	d003    	beq.n	0x1fff2c94
   0x1fff2c8c:	e02d    	b.n	0x1fff2cea
   0x1fff2c8e:	4c6d    	ldr	r4, [pc, #436]	@ (0x1fff2e44)
   0x1fff2c90:	1c64    	adds	r4, r4, #1
   0x1fff2c92:	e02a    	b.n	0x1fff2cea
   0x1fff2c94:	9900    	ldr	r1, [sp, #0]
   0x1fff2c96:	4668    	mov	r0, sp
   0x1fff2c98:	880a    	ldrh	r2, [r1, #0]
   0x1fff2c9a:	8980    	ldrh	r0, [r0, #12]
   0x1fff2c9c:	4282    	cmp	r2, r0
   0x1fff2c9e:	d900    	bls.n	0x1fff2ca2
   0x1fff2ca0:	8008    	strh	r0, [r1, #0]
   0x1fff2ca2:	9802    	ldr	r0, [sp, #8]
   0x1fff2ca4:	f7ff facb	bl	0x1fff223e
   0x1fff2ca8:	e01f    	b.n	0x1fff2cea
   0x1fff2caa:	7939    	ldrb	r1, [r7, #4]
   0x1fff2cac:	064a    	lsls	r2, r1, #25
   0x1fff2cae:	0f92    	lsrs	r2, r2, #30
   0x1fff2cb0:	2a01    	cmp	r2, #1
   0x1fff2cb2:	d11a    	bne.n	0x1fff2cea
   0x1fff2cb4:	06c9    	lsls	r1, r1, #27
   0x1fff2cb6:	0ec9    	lsrs	r1, r1, #27
   0x1fff2cb8:	2901    	cmp	r1, #1
   0x1fff2cba:	d116    	bne.n	0x1fff2cea
   0x1fff2cbc:	7979    	ldrb	r1, [r7, #5]
   0x1fff2cbe:	2909    	cmp	r1, #9
   0x1fff2cc0:	d113    	bne.n	0x1fff2cea
   0x1fff2cc2:	897a    	ldrh	r2, [r7, #10]
   0x1fff2cc4:	69e9    	ldr	r1, [r5, #28]
   0x1fff2cc6:	1a89    	subs	r1, r1, r2
   0x1fff2cc8:	9104    	str	r1, [sp, #16]
   0x1fff2cca:	6944    	ldr	r4, [r0, #20]
   0x1fff2ccc:	897b    	ldrh	r3, [r7, #10]
   0x1fff2cce:	aa04    	add	r2, sp, #16
   0x1fff2cd0:	9901    	ldr	r1, [sp, #4]
   0x1fff2cd2:	47a0    	blx	r4
   0x1fff2cd4:	0004    	movs	r4, r0
   0x1fff2cd6:	d108    	bne.n	0x1fff2cea
   0x1fff2cd8:	9804    	ldr	r0, [sp, #16]
   0x1fff2cda:	42b0    	cmp	r0, r6
   0x1fff2cdc:	d001    	beq.n	0x1fff2ce2
   0x1fff2cde:	61e8    	str	r0, [r5, #28]
   0x1fff2ce0:	e000    	b.n	0x1fff2ce4
   0x1fff2ce2:	61ee    	str	r6, [r5, #28]
   0x1fff2ce4:	9802    	ldr	r0, [sp, #8]
   0x1fff2ce6:	f7ff fad1	bl	0x1fff228c
   0x1fff2cea:	4620    	mov	r0, r4
   0x1fff2cec:	b005    	add	sp, #20
   0x1fff2cee:	bdf0    	pop	{r4, r5, r6, r7, pc}
   0x1fff2cf0:	7a00    	ldrb	r0, [r0, #8]
   0x1fff2cf2:	00c0    	lsls	r0, r0, #3
   0x1fff2cf4:	3030    	adds	r0, #48	@ 0x30
   0x1fff2cf6:	08c0    	lsrs	r0, r0, #3
   0x1fff2cf8:	00c0    	lsls	r0, r0, #3
   0x1fff2cfa:	4770    	bx	lr
   0x1fff2cfc:	b5f3    	push	{r0, r1, r4, r5, r6, r7, lr}
   0x1fff2cfe:	b083    	sub	sp, #12
   0x1fff2d00:	2000    	movs	r0, #0
   0x1fff2d02:	9000    	str	r0, [sp, #0]
   0x1fff2d04:	460c    	mov	r4, r1
   0x1fff2d06:	680d    	ldr	r5, [r1, #0]
   0x1fff2d08:	68ce    	ldr	r6, [r1, #12]
   0x1fff2d0a:	6860    	ldr	r0, [r4, #4]
   0x1fff2d0c:	07a9    	lsls	r1, r5, #30
   0x1fff2d0e:	d007    	beq.n	0x1fff2d20
   0x1fff2d10:	7a21    	ldrb	r1, [r4, #8]
   0x1fff2d12:	00c9    	lsls	r1, r1, #3
   0x1fff2d14:	3128    	adds	r1, #40	@ 0x28
   0x1fff2d16:	4288    	cmp	r0, r1
   0x1fff2d18:	d202    	bcs.n	0x1fff2d20
   0x1fff2d1a:	484a    	ldr	r0, [pc, #296]	@ (0x1fff2e44)
   0x1fff2d1c:	3008    	adds	r0, #8
   0x1fff2d1e:	e7e5    	b.n	0x1fff2cec
   0x1fff2d20:	4629    	mov	r1, r5
   0x1fff2d22:	3128    	adds	r1, #40	@ 0x28
   0x1fff2d24:	6021    	str	r1, [r4, #0]
   0x1fff2d26:	3828    	subs	r0, #40	@ 0x28
   0x1fff2d28:	6060    	str	r0, [r4, #4]
   0x1fff2d2a:	2128    	movs	r1, #40	@ 0x28
   0x1fff2d2c:	4628    	mov	r0, r5
   0x1fff2d2e:	f001 f8fa	bl	0x1fff3f26
   0x1fff2d32:	9803    	ldr	r0, [sp, #12]
   0x1fff2d34:	6028    	str	r0, [r5, #0]
   0x1fff2d36:	6820    	ldr	r0, [r4, #0]
   0x1fff2d38:	60a8    	str	r0, [r5, #8]
   0x1fff2d3a:	7a21    	ldrb	r1, [r4, #8]
   0x1fff2d3c:	6820    	ldr	r0, [r4, #0]
   0x1fff2d3e:	00c9    	lsls	r1, r1, #3
   0x1fff2d40:	1840    	adds	r0, r0, r1
   0x1fff2d42:	6020    	str	r0, [r4, #0]
   0x1fff2d44:	6860    	ldr	r0, [r4, #4]
   0x1fff2d46:	1a40    	subs	r0, r0, r1
   0x1fff2d48:	e003    	b.n	0x1fff2d52
   0x1fff2d4a:	1c40    	adds	r0, r0, #1
   0x1fff2d4c:	6020    	str	r0, [r4, #0]
   0x1fff2d4e:	6860    	ldr	r0, [r4, #4]
   0x1fff2d50:	1e40    	subs	r0, r0, #1
   0x1fff2d52:	6060    	str	r0, [r4, #4]
   0x1fff2d54:	6820    	ldr	r0, [r4, #0]
   0x1fff2d56:	0782    	lsls	r2, r0, #30
   0x1fff2d58:	d1f7    	bne.n	0x1fff2d4a
   0x1fff2d5a:	68a8    	ldr	r0, [r5, #8]
   0x1fff2d5c:	f001 f8e3	bl	0x1fff3f26
   0x1fff2d60:	2000    	movs	r0, #0
   0x1fff2d62:	e007    	b.n	0x1fff2d74
   0x1fff2d64:	68aa    	ldr	r2, [r5, #8]
   0x1fff2d66:	00c1    	lsls	r1, r0, #3
   0x1fff2d68:	6923    	ldr	r3, [r4, #16]
   0x1fff2d6a:	1852    	adds	r2, r2, r1
   0x1fff2d6c:	1859    	adds	r1, r3, r1
   0x1fff2d6e:	c90a    	ldmia	r1, {r1, r3}
   0x1fff2d70:	c20a    	stmia	r2!, {r1, r3}
   0x1fff2d72:	1c40    	adds	r0, r0, #1
   0x1fff2d74:	7a21    	ldrb	r1, [r4, #8]
   0x1fff2d76:	4281    	cmp	r1, r0
   0x1fff2d78:	d8f4    	bhi.n	0x1fff2d64
   0x1fff2d7a:	6960    	ldr	r0, [r4, #20]
   0x1fff2d7c:	2800    	cmp	r0, #0
   0x1fff2d7e:	d015    	beq.n	0x1fff2dac
   0x1fff2d80:	69a1    	ldr	r1, [r4, #24]
   0x1fff2d82:	2900    	cmp	r1, #0
   0x1fff2d84:	d012    	beq.n	0x1fff2dac
   0x1fff2d86:	6128    	str	r0, [r5, #16]
   0x1fff2d88:	69a0    	ldr	r0, [r4, #24]
   0x1fff2d8a:	6168    	str	r0, [r5, #20]
   0x1fff2d8c:	69e0    	ldr	r0, [r4, #28]
   0x1fff2d8e:	61a8    	str	r0, [r5, #24]
   0x1fff2d90:	6a20    	ldr	r0, [r4, #32]
   0x1fff2d92:	61e8    	str	r0, [r5, #28]
   0x1fff2d94:	6a60    	ldr	r0, [r4, #36]	@ 0x24
   0x1fff2d96:	6228    	str	r0, [r5, #32]
   0x1fff2d98:	6b21    	ldr	r1, [r4, #48]	@ 0x30
   0x1fff2d9a:	482b    	ldr	r0, [pc, #172]	@ (0x1fff2e48)
   0x1fff2d9c:	2900    	cmp	r1, #0
   0x1fff2d9e:	d000    	beq.n	0x1fff2da2
   0x1fff2da0:	4608    	mov	r0, r1
   0x1fff2da2:	6268    	str	r0, [r5, #36]	@ 0x24
   0x1fff2da4:	7870    	ldrb	r0, [r6, #1]
   0x1fff2da6:	2804    	cmp	r0, #4
   0x1fff2da8:	d002    	beq.n	0x1fff2db0
   0x1fff2daa:	e004    	b.n	0x1fff2db6
   0x1fff2dac:	4827    	ldr	r0, [pc, #156]	@ (0x1fff2e4c)
   0x1fff2dae:	e79d    	b.n	0x1fff2cec
   0x1fff2db0:	7970    	ldrb	r0, [r6, #5]
   0x1fff2db2:	2803    	cmp	r0, #3
   0x1fff2db4:	d002    	beq.n	0x1fff2dbc
   0x1fff2db6:	4823    	ldr	r0, [pc, #140]	@ (0x1fff2e44)
   0x1fff2db8:	1d80    	adds	r0, r0, #6
   0x1fff2dba:	e797    	b.n	0x1fff2cec
   0x1fff2dbc:	78b0    	ldrb	r0, [r6, #2]
   0x1fff2dbe:	7368    	strb	r0, [r5, #13]
   0x1fff2dc0:	79f0    	ldrb	r0, [r6, #7]
   0x1fff2dc2:	7328    	strb	r0, [r5, #12]
   0x1fff2dc4:	7830    	ldrb	r0, [r6, #0]
   0x1fff2dc6:	1980    	adds	r0, r0, r6
   0x1fff2dc8:	7841    	ldrb	r1, [r0, #1]
   0x1fff2dca:	2921    	cmp	r1, #33	@ 0x21
   0x1fff2dcc:	d002    	beq.n	0x1fff2dd4
   0x1fff2dce:	481d    	ldr	r0, [pc, #116]	@ (0x1fff2e44)
   0x1fff2dd0:	1d00    	adds	r0, r0, #4
   0x1fff2dd2:	e78b    	b.n	0x1fff2cec
   0x1fff2dd4:	6068    	str	r0, [r5, #4]
   0x1fff2dd6:	7801    	ldrb	r1, [r0, #0]
   0x1fff2dd8:	1808    	adds	r0, r1, r0
   0x1fff2dda:	2700    	movs	r7, #0
   0x1fff2ddc:	9001    	str	r0, [sp, #4]
   0x1fff2dde:	e01e    	b.n	0x1fff2e1e
   0x1fff2de0:	9801    	ldr	r0, [sp, #4]
   0x1fff2de2:	7801    	ldrb	r1, [r0, #0]
   0x1fff2de4:	1809    	adds	r1, r1, r0
   0x1fff2de6:	9101    	str	r1, [sp, #4]
   0x1fff2de8:	7841    	ldrb	r1, [r0, #1]
   0x1fff2dea:	2905    	cmp	r1, #5
   0x1fff2dec:	d116    	bne.n	0x1fff2e1c
   0x1fff2dee:	78c1    	ldrb	r1, [r0, #3]
   0x1fff2df0:	2903    	cmp	r1, #3
   0x1fff2df2:	d113    	bne.n	0x1fff2e1c
   0x1fff2df4:	7880    	ldrb	r0, [r0, #2]
   0x1fff2df6:	0601    	lsls	r1, r0, #24
   0x1fff2df8:	d505    	bpl.n	0x1fff2e06
   0x1fff2dfa:	73a8    	strb	r0, [r5, #14]
   0x1fff2dfc:	0700    	lsls	r0, r0, #28
   0x1fff2dfe:	0ec1    	lsrs	r1, r0, #27
   0x1fff2e00:	1c49    	adds	r1, r1, #1
   0x1fff2e02:	6aa2    	ldr	r2, [r4, #40]	@ 0x28
   0x1fff2e04:	e003    	b.n	0x1fff2e0e
   0x1fff2e06:	73e8    	strb	r0, [r5, #15]
   0x1fff2e08:	0700    	lsls	r0, r0, #28
   0x1fff2e0a:	6ae2    	ldr	r2, [r4, #44]	@ 0x2c
   0x1fff2e0c:	0ec1    	lsrs	r1, r0, #27
   0x1fff2e0e:	2a00    	cmp	r2, #0
   0x1fff2e10:	d004    	beq.n	0x1fff2e1c
   0x1fff2e12:	462b    	mov	r3, r5
   0x1fff2e14:	9803    	ldr	r0, [sp, #12]
   0x1fff2e16:	f7ff fdde	bl	0x1fff29d6
   0x1fff2e1a:	9000    	str	r0, [sp, #0]
   0x1fff2e1c:	1c7f    	adds	r7, r7, #1
   0x1fff2e1e:	7930    	ldrb	r0, [r6, #4]
   0x1fff2e20:	42b8    	cmp	r0, r7
   0x1fff2e22:	d8dd    	bhi.n	0x1fff2de0
   0x1fff2e24:	9800    	ldr	r0, [sp, #0]
   0x1fff2e26:	2800    	cmp	r0, #0
   0x1fff2e28:	d002    	beq.n	0x1fff2e30
   0x1fff2e2a:	4806    	ldr	r0, [pc, #24]	@ (0x1fff2e44)
   0x1fff2e2c:	1dc0    	adds	r0, r0, #7
   0x1fff2e2e:	e75d    	b.n	0x1fff2cec
   0x1fff2e30:	6b61    	ldr	r1, [r4, #52]	@ 0x34
   0x1fff2e32:	462a    	mov	r2, r5
   0x1fff2e34:	2900    	cmp	r1, #0
   0x1fff2e36:	d100    	bne.n	0x1fff2e3a
   0x1fff2e38:	4905    	ldr	r1, [pc, #20]	@ (0x1fff2e50)
   0x1fff2e3a:	9803    	ldr	r0, [sp, #12]
   0x1fff2e3c:	f7ff fe3b	bl	0x1fff2ab6
   0x1fff2e40:	e754    	b.n	0x1fff2cec
   0x1fff2e42:	0000    	movs	r0, r0
   0x1fff2e44:	0002    	movs	r2, r0
   0x1fff2e46:	0004    	movs	r4, r0
   0x1fff2e48:	2b15    	cmp	r3, #21
   0x1fff2e4a:	1fff    	subs	r7, r7, #7
   0x1fff2e4c:	0003    	movs	r3, r0
   0x1fff2e4e:	0001    	movs	r1, r0
   0x1fff2e50:	2b9d    	cmp	r3, #157	@ 0x9d
   0x1fff2e52:	1fff    	subs	r7, r7, #7
   0x1fff2e54:	4770    	bx	lr
   0x1fff2e56:	b510    	push	{r4, lr}
   0x1fff2e58:	30ff    	adds	r0, #255	@ 0xff
   0x1fff2e5a:	3001    	adds	r0, #1
   0x1fff2e5c:	6984    	ldr	r4, [r0, #24]
   0x1fff2e5e:	4608    	mov	r0, r1
   0x1fff2e60:	f000 fcae	bl	0x1fff37c0
   0x1fff2e64:	2101    	movs	r1, #1
   0x1fff2e66:	4081    	lsls	r1, r0
   0x1fff2e68:	6a20    	ldr	r0, [r4, #32]
   0x1fff2e6a:	6942    	ldr	r2, [r0, #20]
   0x1fff2e6c:	430a    	orrs	r2, r1
   0x1fff2e6e:	6142    	str	r2, [r0, #20]
   0x1fff2e70:	6a20    	ldr	r0, [r4, #32]
   0x1fff2e72:	6942    	ldr	r2, [r0, #20]
   0x1fff2e74:	420a    	tst	r2, r1
   0x1fff2e76:	d1fc    	bne.n	0x1fff2e72
   0x1fff2e78:	6201    	str	r1, [r0, #32]
   0x1fff2e7a:	bd10    	pop	{r4, pc}
   0x1fff2e7c:	4770    	bx	lr
   0x1fff2e7e:	7b00    	ldrb	r0, [r0, #12]
   0x1fff2e80:	0101    	lsls	r1, r0, #4
   0x1fff2e82:	0140    	lsls	r0, r0, #5
   0x1fff2e84:	1840    	adds	r0, r0, r1
   0x1fff2e86:	30ff    	adds	r0, #255	@ 0xff
   0x1fff2e88:	30d4    	adds	r0, #212	@ 0xd4
   0x1fff2e8a:	0980    	lsrs	r0, r0, #6
   0x1fff2e8c:	0180    	lsls	r0, r0, #6
   0x1fff2e8e:	3080    	adds	r0, #128	@ 0x80
   0x1fff2e90:	4770    	bx	lr
   0x1fff2e92:	30ff    	adds	r0, #255	@ 0xff
   0x1fff2e94:	3001    	adds	r0, #1
   0x1fff2e96:	6980    	ldr	r0, [r0, #24]
   0x1fff2e98:	2201    	movs	r2, #1
   0x1fff2e9a:	0412    	lsls	r2, r2, #16
   0x1fff2e9c:	6a00    	ldr	r0, [r0, #32]
   0x1fff2e9e:	2900    	cmp	r1, #0
   0x1fff2ea0:	6801    	ldr	r1, [r0, #0]
   0x1fff2ea2:	d001    	beq.n	0x1fff2ea8
   0x1fff2ea4:	4311    	orrs	r1, r2
   0x1fff2ea6:	e000    	b.n	0x1fff2eaa
   0x1fff2ea8:	4391    	bics	r1, r2
   0x1fff2eaa:	6001    	str	r1, [r0, #0]
   0x1fff2eac:	4770    	bx	lr
   0x1fff2eae:	21ff    	movs	r1, #255	@ 0xff
   0x1fff2eb0:	3119    	adds	r1, #25
   0x1fff2eb2:	5809    	ldr	r1, [r1, r0]
   0x1fff2eb4:	30e0    	adds	r0, #224	@ 0xe0
   0x1fff2eb6:	89c0    	ldrh	r0, [r0, #14]
   0x1fff2eb8:	0780    	lsls	r0, r0, #30
   0x1fff2eba:	d505    	bpl.n	0x1fff2ec8
   0x1fff2ebc:	6a08    	ldr	r0, [r1, #32]
   0x1fff2ebe:	6801    	ldr	r1, [r0, #0]
   0x1fff2ec0:	2201    	movs	r2, #1
   0x1fff2ec2:	0452    	lsls	r2, r2, #17
   0x1fff2ec4:	4391    	bics	r1, r2
   0x1fff2ec6:	6001    	str	r1, [r0, #0]
   0x1fff2ec8:	4770    	bx	lr
   0x1fff2eca:	30ff    	adds	r0, #255	@ 0xff
   0x1fff2ecc:	3001    	adds	r0, #1
   0x1fff2ece:	6980    	ldr	r0, [r0, #24]
   0x1fff2ed0:	2201    	movs	r2, #1
   0x1fff2ed2:	0252    	lsls	r2, r2, #9
   0x1fff2ed4:	6a00    	ldr	r0, [r0, #32]
   0x1fff2ed6:	2900    	cmp	r1, #0
   0x1fff2ed8:	6801    	ldr	r1, [r0, #0]
   0x1fff2eda:	d001    	beq.n	0x1fff2ee0
   0x1fff2edc:	4391    	bics	r1, r2
   0x1fff2ede:	e000    	b.n	0x1fff2ee2
   0x1fff2ee0:	4311    	orrs	r1, r2
   0x1fff2ee2:	6001    	str	r1, [r0, #0]
   0x1fff2ee4:	4770    	bx	lr
   0x1fff2ee6:	30ff    	adds	r0, #255	@ 0xff
   0x1fff2ee8:	3001    	adds	r0, #1
   0x1fff2eea:	6980    	ldr	r0, [r0, #24]
   0x1fff2eec:	6a02    	ldr	r2, [r0, #32]
   0x1fff2eee:	6813    	ldr	r3, [r2, #0]
   0x1fff2ef0:	09db    	lsrs	r3, r3, #7
   0x1fff2ef2:	01db    	lsls	r3, r3, #7
   0x1fff2ef4:	6013    	str	r3, [r2, #0]
   0x1fff2ef6:	6a00    	ldr	r0, [r0, #32]
   0x1fff2ef8:	6802    	ldr	r2, [r0, #0]
   0x1fff2efa:	2380    	movs	r3, #128	@ 0x80
   0x1fff2efc:	4319    	orrs	r1, r3
   0x1fff2efe:	430a    	orrs	r2, r1
   0x1fff2f00:	6002    	str	r2, [r0, #0]
   0x1fff2f02:	4770    	bx	lr
   0x1fff2f04:	48ff    	ldr	r0, [pc, #1020]	@ (0x1fff3304)
   0x1fff2f06:	4770    	bx	lr
   0x1fff2f08:	30ff    	adds	r0, #255	@ 0xff
   0x1fff2f0a:	3001    	adds	r0, #1
   0x1fff2f0c:	6980    	ldr	r0, [r0, #24]
   0x1fff2f0e:	2900    	cmp	r1, #0
   0x1fff2f10:	6a00    	ldr	r0, [r0, #32]
   0x1fff2f12:	d001    	beq.n	0x1fff2f18
   0x1fff2f14:	49fc    	ldr	r1, [pc, #1008]	@ (0x1fff3308)
   0x1fff2f16:	e000    	b.n	0x1fff2f1a
   0x1fff2f18:	49fc    	ldr	r1, [pc, #1008]	@ (0x1fff330c)
   0x1fff2f1a:	6241    	str	r1, [r0, #36]	@ 0x24
   0x1fff2f1c:	4770    	bx	lr
   0x1fff2f1e:	b5f8    	push	{r3, r4, r5, r6, r7, lr}
   0x1fff2f20:	30ff    	adds	r0, #255	@ 0xff
   0x1fff2f22:	3001    	adds	r0, #1
   0x1fff2f24:	6984    	ldr	r4, [r0, #24]
   0x1fff2f26:	460d    	mov	r5, r1
   0x1fff2f28:	7888    	ldrb	r0, [r1, #2]
   0x1fff2f2a:	6866    	ldr	r6, [r4, #4]
   0x1fff2f2c:	f000 fc48	bl	0x1fff37c0
   0x1fff2f30:	0041    	lsls	r1, r0, #1
   0x1fff2f32:	6820    	ldr	r0, [r4, #0]
   0x1fff2f34:	008a    	lsls	r2, r1, #2
   0x1fff2f36:	1880    	adds	r0, r0, r2
   0x1fff2f38:	796a    	ldrb	r2, [r5, #5]
   0x1fff2f3a:	792b    	ldrb	r3, [r5, #4]
   0x1fff2f3c:	0212    	lsls	r2, r2, #8
   0x1fff2f3e:	431a    	orrs	r2, r3
   0x1fff2f40:	323f    	adds	r2, #63	@ 0x3f
   0x1fff2f42:	0992    	lsrs	r2, r2, #6
   0x1fff2f44:	0192    	lsls	r2, r2, #6
   0x1fff2f46:	4696    	mov	lr, r2
   0x1fff2f48:	2200    	movs	r2, #0
   0x1fff2f4a:	78eb    	ldrb	r3, [r5, #3]
   0x1fff2f4c:	792f    	ldrb	r7, [r5, #4]
   0x1fff2f4e:	079b    	lsls	r3, r3, #30
   0x1fff2f50:	0f9b    	lsrs	r3, r3, #30
   0x1fff2f52:	2b01    	cmp	r3, #1
   0x1fff2f54:	796b    	ldrb	r3, [r5, #5]
   0x1fff2f56:	d01d    	beq.n	0x1fff2f94
   0x1fff2f58:	021b    	lsls	r3, r3, #8
   0x1fff2f5a:	433b    	orrs	r3, r7
   0x1fff2f5c:	6927    	ldr	r7, [r4, #16]
   0x1fff2f5e:	041b    	lsls	r3, r3, #16
   0x1fff2f60:	02bf    	lsls	r7, r7, #10
   0x1fff2f62:	0c3f    	lsrs	r7, r7, #16
   0x1fff2f64:	433b    	orrs	r3, r7
   0x1fff2f66:	2701    	movs	r7, #1
   0x1fff2f68:	07bf    	lsls	r7, r7, #30
   0x1fff2f6a:	433b    	orrs	r3, r7
   0x1fff2f6c:	c008    	stmia	r0!, {r3}
   0x1fff2f6e:	6927    	ldr	r7, [r4, #16]
   0x1fff2f70:	00cb    	lsls	r3, r1, #3
   0x1fff2f72:	469c    	mov	r12, r3
   0x1fff2f74:	50f7    	str	r7, [r6, r3]
   0x1fff2f76:	796f    	ldrb	r7, [r5, #5]
   0x1fff2f78:	792b    	ldrb	r3, [r5, #4]
   0x1fff2f7a:	023f    	lsls	r7, r7, #8
   0x1fff2f7c:	431f    	orrs	r7, r3
   0x1fff2f7e:	4663    	mov	r3, r12
   0x1fff2f80:	199b    	adds	r3, r3, r6
   0x1fff2f82:	605f    	str	r7, [r3, #4]
   0x1fff2f84:	6923    	ldr	r3, [r4, #16]
   0x1fff2f86:	4473    	add	r3, lr
   0x1fff2f88:	6123    	str	r3, [r4, #16]
   0x1fff2f8a:	1c49    	adds	r1, r1, #1
   0x1fff2f8c:	1c52    	adds	r2, r2, #1
   0x1fff2f8e:	2a02    	cmp	r2, #2
   0x1fff2f90:	d3db    	bcc.n	0x1fff2f4a
   0x1fff2f92:	bdf8    	pop	{r3, r4, r5, r6, r7, pc}
   0x1fff2f94:	021b    	lsls	r3, r3, #8
   0x1fff2f96:	433b    	orrs	r3, r7
   0x1fff2f98:	6927    	ldr	r7, [r4, #16]
   0x1fff2f9a:	041b    	lsls	r3, r3, #16
   0x1fff2f9c:	02bf    	lsls	r7, r7, #10
   0x1fff2f9e:	0c3f    	lsrs	r7, r7, #16
   0x1fff2fa0:	433b    	orrs	r3, r7
   0x1fff2fa2:	2711    	movs	r7, #17
   0x1fff2fa4:	06bf    	lsls	r7, r7, #26
   0x1fff2fa6:	e7e0    	b.n	0x1fff2f6a
   0x1fff2fa8:	4770    	bx	lr
   0x1fff2faa:	b570    	push	{r4, r5, r6, lr}
   0x1fff2fac:	30ff    	adds	r0, #255	@ 0xff
   0x1fff2fae:	3001    	adds	r0, #1
   0x1fff2fb0:	6984    	ldr	r4, [r0, #24]
   0x1fff2fb2:	460d    	mov	r5, r1
   0x1fff2fb4:	4608    	mov	r0, r1
   0x1fff2fb6:	f000 fc03	bl	0x1fff37c0
   0x1fff2fba:	6821    	ldr	r1, [r4, #0]
   0x1fff2fbc:	00c0    	lsls	r0, r0, #3
   0x1fff2fbe:	1842    	adds	r2, r0, r1
   0x1fff2fc0:	2401    	movs	r4, #1
   0x1fff2fc2:	6813    	ldr	r3, [r2, #0]
   0x1fff2fc4:	07a4    	lsls	r4, r4, #30
   0x1fff2fc6:	43a3    	bics	r3, r4
   0x1fff2fc8:	6013    	str	r3, [r2, #0]
   0x1fff2fca:	0728    	lsls	r0, r5, #28
   0x1fff2fcc:	d00c    	beq.n	0x1fff2fe8
   0x1fff2fce:	0628    	lsls	r0, r5, #24
   0x1fff2fd0:	d502    	bpl.n	0x1fff2fd8
   0x1fff2fd2:	6850    	ldr	r0, [r2, #4]
   0x1fff2fd4:	43a0    	bics	r0, r4
   0x1fff2fd6:	e006    	b.n	0x1fff2fe6
   0x1fff2fd8:	2101    	movs	r1, #1
   0x1fff2fda:	07c9    	lsls	r1, r1, #31
   0x1fff2fdc:	430b    	orrs	r3, r1
   0x1fff2fde:	6013    	str	r3, [r2, #0]
   0x1fff2fe0:	6850    	ldr	r0, [r2, #4]
   0x1fff2fe2:	43a0    	bics	r0, r4
   0x1fff2fe4:	4308    	orrs	r0, r1
   0x1fff2fe6:	6050    	str	r0, [r2, #4]
   0x1fff2fe8:	bd70    	pop	{r4, r5, r6, pc}
   0x1fff2fea:	b510    	push	{r4, lr}
   0x1fff2fec:	30ff    	adds	r0, #255	@ 0xff
   0x1fff2fee:	3001    	adds	r0, #1
   0x1fff2ff0:	6984    	ldr	r4, [r0, #24]
   0x1fff2ff2:	0708    	lsls	r0, r1, #28
   0x1fff2ff4:	d00f    	beq.n	0x1fff3016
   0x1fff2ff6:	68e0    	ldr	r0, [r4, #12]
   0x1fff2ff8:	6120    	str	r0, [r4, #16]
   0x1fff2ffa:	4608    	mov	r0, r1
   0x1fff2ffc:	f000 fbe0	bl	0x1fff37c0
   0x1fff3000:	6821    	ldr	r1, [r4, #0]
   0x1fff3002:	00c0    	lsls	r0, r0, #3
   0x1fff3004:	1840    	adds	r0, r0, r1
   0x1fff3006:	2201    	movs	r2, #1
   0x1fff3008:	6801    	ldr	r1, [r0, #0]
   0x1fff300a:	0792    	lsls	r2, r2, #30
   0x1fff300c:	4311    	orrs	r1, r2
   0x1fff300e:	6001    	str	r1, [r0, #0]
   0x1fff3010:	6841    	ldr	r1, [r0, #4]
   0x1fff3012:	4311    	orrs	r1, r2
   0x1fff3014:	6041    	str	r1, [r0, #4]
   0x1fff3016:	bd10    	pop	{r4, pc}
   0x1fff3018:	b570    	push	{r4, r5, r6, lr}
   0x1fff301a:	30ff    	adds	r0, #255	@ 0xff
   0x1fff301c:	3001    	adds	r0, #1
   0x1fff301e:	6985    	ldr	r5, [r0, #24]
   0x1fff3020:	460e    	mov	r6, r1
   0x1fff3022:	4608    	mov	r0, r1
   0x1fff3024:	f000 fbcc	bl	0x1fff37c0
   0x1fff3028:	6829    	ldr	r1, [r5, #0]
   0x1fff302a:	00c0    	lsls	r0, r0, #3
   0x1fff302c:	1844    	adds	r4, r0, r1
   0x1fff302e:	2101    	movs	r1, #1
   0x1fff3030:	6820    	ldr	r0, [r4, #0]
   0x1fff3032:	0749    	lsls	r1, r1, #29
   0x1fff3034:	4388    	bics	r0, r1
   0x1fff3036:	6020    	str	r0, [r4, #0]
   0x1fff3038:	68a0    	ldr	r0, [r4, #8]
   0x1fff303a:	4388    	bics	r0, r1
   0x1fff303c:	60a0    	str	r0, [r4, #8]
   0x1fff303e:	4630    	mov	r0, r6
   0x1fff3040:	f000 fbbe	bl	0x1fff37c0
   0x1fff3044:	2101    	movs	r1, #1
   0x1fff3046:	4081    	lsls	r1, r0
   0x1fff3048:	6a28    	ldr	r0, [r5, #32]
   0x1fff304a:	6980    	ldr	r0, [r0, #24]
   0x1fff304c:	4201    	tst	r1, r0
   0x1fff304e:	d000    	beq.n	0x1fff3052
   0x1fff3050:	1d24    	adds	r4, r4, #4
   0x1fff3052:	2101    	movs	r1, #1
   0x1fff3054:	6820    	ldr	r0, [r4, #0]
   0x1fff3056:	0709    	lsls	r1, r1, #28
   0x1fff3058:	4308    	orrs	r0, r1
   0x1fff305a:	6020    	str	r0, [r4, #0]
   0x1fff305c:	bd70    	pop	{r4, r5, r6, pc}
   0x1fff305e:	b5f3    	push	{r0, r1, r4, r5, r6, r7, lr}
   0x1fff3060:	4606    	mov	r6, r0
   0x1fff3062:	30ff    	adds	r0, #255	@ 0xff
   0x1fff3064:	3001    	adds	r0, #1
   0x1fff3066:	b081    	sub	sp, #4
   0x1fff3068:	6987    	ldr	r7, [r0, #24]
   0x1fff306a:	9802    	ldr	r0, [sp, #8]
   0x1fff306c:	f000 fba8	bl	0x1fff37c0
   0x1fff3070:	6839    	ldr	r1, [r7, #0]
   0x1fff3072:	00c0    	lsls	r0, r0, #3
   0x1fff3074:	1844    	adds	r4, r0, r1
   0x1fff3076:	9802    	ldr	r0, [sp, #8]
   0x1fff3078:	4da5    	ldr	r5, [pc, #660]	@ (0x1fff3310)
   0x1fff307a:	0700    	lsls	r0, r0, #28
   0x1fff307c:	d014    	beq.n	0x1fff30a8
   0x1fff307e:	6820    	ldr	r0, [r4, #0]
   0x1fff3080:	2800    	cmp	r0, #0
   0x1fff3082:	da03    	bge.n	0x1fff308c
   0x1fff3084:	4630    	mov	r0, r6
   0x1fff3086:	9902    	ldr	r1, [sp, #8]
   0x1fff3088:	f7ff fee5	bl	0x1fff2e56
   0x1fff308c:	6820    	ldr	r0, [r4, #0]
   0x1fff308e:	4328    	orrs	r0, r5
   0x1fff3090:	6020    	str	r0, [r4, #0]
   0x1fff3092:	9802    	ldr	r0, [sp, #8]
   0x1fff3094:	f000 fb94	bl	0x1fff37c0
   0x1fff3098:	4601    	mov	r1, r0
   0x1fff309a:	2001    	movs	r0, #1
   0x1fff309c:	4088    	lsls	r0, r1
   0x1fff309e:	6a39    	ldr	r1, [r7, #32]
   0x1fff30a0:	69c9    	ldr	r1, [r1, #28]
   0x1fff30a2:	4208    	tst	r0, r1
   0x1fff30a4:	d006    	beq.n	0x1fff30b4
   0x1fff30a6:	1d24    	adds	r4, r4, #4
   0x1fff30a8:	6820    	ldr	r0, [r4, #0]
   0x1fff30aa:	2800    	cmp	r0, #0
   0x1fff30ac:	db03    	blt.n	0x1fff30b6
   0x1fff30ae:	6820    	ldr	r0, [r4, #0]
   0x1fff30b0:	4328    	orrs	r0, r5
   0x1fff30b2:	6020    	str	r0, [r4, #0]
   0x1fff30b4:	bdfe    	pop	{r1, r2, r3, r4, r5, r6, r7, pc}
   0x1fff30b6:	4630    	mov	r0, r6
   0x1fff30b8:	9902    	ldr	r1, [sp, #8]
   0x1fff30ba:	f7ff fecc	bl	0x1fff2e56
   0x1fff30be:	e7f6    	b.n	0x1fff30ae
   0x1fff30c0:	b5f8    	push	{r3, r4, r5, r6, r7, lr}
   0x1fff30c2:	30ff    	adds	r0, #255	@ 0xff
   0x1fff30c4:	3001    	adds	r0, #1
   0x1fff30c6:	6985    	ldr	r5, [r0, #24]
   0x1fff30c8:	460f    	mov	r7, r1
   0x1fff30ca:	6868    	ldr	r0, [r5, #4]
   0x1fff30cc:	9000    	str	r0, [sp, #0]
   0x1fff30ce:	4608    	mov	r0, r1
   0x1fff30d0:	f000 fb76	bl	0x1fff37c0
   0x1fff30d4:	0046    	lsls	r6, r0, #1
   0x1fff30d6:	6828    	ldr	r0, [r5, #0]
   0x1fff30d8:	00b1    	lsls	r1, r6, #2
   0x1fff30da:	1844    	adds	r4, r0, r1
   0x1fff30dc:	0738    	lsls	r0, r7, #28
   0x1fff30de:	498c    	ldr	r1, [pc, #560]	@ (0x1fff3310)
   0x1fff30e0:	6820    	ldr	r0, [r4, #0]
   0x1fff30e2:	d024    	beq.n	0x1fff312e
   0x1fff30e4:	4388    	bics	r0, r1
   0x1fff30e6:	6020    	str	r0, [r4, #0]
   0x1fff30e8:	6860    	ldr	r0, [r4, #4]
   0x1fff30ea:	4388    	bics	r0, r1
   0x1fff30ec:	6060    	str	r0, [r4, #4]
   0x1fff30ee:	4638    	mov	r0, r7
   0x1fff30f0:	f000 fb66	bl	0x1fff37c0
   0x1fff30f4:	4601    	mov	r1, r0
   0x1fff30f6:	2001    	movs	r0, #1
   0x1fff30f8:	4088    	lsls	r0, r1
   0x1fff30fa:	6a29    	ldr	r1, [r5, #32]
   0x1fff30fc:	6989    	ldr	r1, [r1, #24]
   0x1fff30fe:	4208    	tst	r0, r1
   0x1fff3100:	d000    	beq.n	0x1fff3104
   0x1fff3102:	1d24    	adds	r4, r4, #4
   0x1fff3104:	2101    	movs	r1, #1
   0x1fff3106:	6820    	ldr	r0, [r4, #0]
   0x1fff3108:	0709    	lsls	r1, r1, #28
   0x1fff310a:	4308    	orrs	r0, r1
   0x1fff310c:	6020    	str	r0, [r4, #0]
   0x1fff310e:	0639    	lsls	r1, r7, #24
   0x1fff3110:	d40f    	bmi.n	0x1fff3132
   0x1fff3112:	4980    	ldr	r1, [pc, #512]	@ (0x1fff3314)
   0x1fff3114:	00f2    	lsls	r2, r6, #3
   0x1fff3116:	4008    	ands	r0, r1
   0x1fff3118:	6020    	str	r0, [r4, #0]
   0x1fff311a:	9900    	ldr	r1, [sp, #0]
   0x1fff311c:	1851    	adds	r1, r2, r1
   0x1fff311e:	6849    	ldr	r1, [r1, #4]
   0x1fff3120:	2201    	movs	r2, #1
   0x1fff3122:	0409    	lsls	r1, r1, #16
   0x1fff3124:	07d2    	lsls	r2, r2, #31
   0x1fff3126:	4311    	orrs	r1, r2
   0x1fff3128:	4308    	orrs	r0, r1
   0x1fff312a:	6020    	str	r0, [r4, #0]
   0x1fff312c:	bdf8    	pop	{r3, r4, r5, r6, r7, pc}
   0x1fff312e:	4388    	bics	r0, r1
   0x1fff3130:	e7fb    	b.n	0x1fff312a
   0x1fff3132:	4638    	mov	r0, r7
   0x1fff3134:	f000 fb44	bl	0x1fff37c0
   0x1fff3138:	4601    	mov	r1, r0
   0x1fff313a:	2601    	movs	r6, #1
   0x1fff313c:	4630    	mov	r0, r6
   0x1fff313e:	4088    	lsls	r0, r1
   0x1fff3140:	6969    	ldr	r1, [r5, #20]
   0x1fff3142:	4208    	tst	r0, r1
   0x1fff3144:	d0f2    	beq.n	0x1fff312c
   0x1fff3146:	6820    	ldr	r0, [r4, #0]
   0x1fff3148:	07f1    	lsls	r1, r6, #31
   0x1fff314a:	4308    	orrs	r0, r1
   0x1fff314c:	6020    	str	r0, [r4, #0]
   0x1fff314e:	4638    	mov	r0, r7
   0x1fff3150:	f000 fb36	bl	0x1fff37c0
   0x1fff3154:	4086    	lsls	r6, r0
   0x1fff3156:	6968    	ldr	r0, [r5, #20]
   0x1fff3158:	43b0    	bics	r0, r6
   0x1fff315a:	6168    	str	r0, [r5, #20]
   0x1fff315c:	bdf8    	pop	{r3, r4, r5, r6, r7, pc}
   0x1fff315e:	b5ff    	push	{r0, r1, r2, r3, r4, r5, r6, r7, lr}
   0x1fff3160:	30ff    	adds	r0, #255	@ 0xff
   0x1fff3162:	3001    	adds	r0, #1
   0x1fff3164:	6984    	ldr	r4, [r0, #24]
   0x1fff3166:	b081    	sub	sp, #4
   0x1fff3168:	2000    	movs	r0, #0
   0x1fff316a:	9000    	str	r0, [sp, #0]
   0x1fff316c:	6a27    	ldr	r7, [r4, #32]
   0x1fff316e:	2500    	movs	r5, #0
   0x1fff3170:	4638    	mov	r0, r7
   0x1fff3172:	3724    	adds	r7, #36	@ 0x24
   0x1fff3174:	4616    	mov	r6, r2
   0x1fff3176:	2a0f    	cmp	r2, #15
   0x1fff3178:	d016    	beq.n	0x1fff31a8
   0x1fff317a:	dc06    	bgt.n	0x1fff318a
   0x1fff317c:	2e04    	cmp	r6, #4
   0x1fff317e:	d016    	beq.n	0x1fff31ae
   0x1fff3180:	2e05    	cmp	r6, #5
   0x1fff3182:	d014    	beq.n	0x1fff31ae
   0x1fff3184:	2a0e    	cmp	r2, #14
   0x1fff3186:	d104    	bne.n	0x1fff3192
   0x1fff3188:	e005    	b.n	0x1fff3196
   0x1fff318a:	2e10    	cmp	r6, #16
   0x1fff318c:	d009    	beq.n	0x1fff31a2
   0x1fff318e:	2a11    	cmp	r2, #17
   0x1fff3190:	d001    	beq.n	0x1fff3196
   0x1fff3192:	485c    	ldr	r0, [pc, #368]	@ (0x1fff3304)
   0x1fff3194:	9000    	str	r0, [sp, #0]
   0x1fff3196:	9804    	ldr	r0, [sp, #16]
   0x1fff3198:	2800    	cmp	r0, #0
   0x1fff319a:	d038    	beq.n	0x1fff320e
   0x1fff319c:	6838    	ldr	r0, [r7, #0]
   0x1fff319e:	4328    	orrs	r0, r5
   0x1fff31a0:	e037    	b.n	0x1fff3212
   0x1fff31a2:	2501    	movs	r5, #1
   0x1fff31a4:	07ed    	lsls	r5, r5, #31
   0x1fff31a6:	e7f6    	b.n	0x1fff3196
   0x1fff31a8:	2501    	movs	r5, #1
   0x1fff31aa:	07ad    	lsls	r5, r5, #30
   0x1fff31ac:	e7f3    	b.n	0x1fff3196
   0x1fff31ae:	4607    	mov	r7, r0
   0x1fff31b0:	9802    	ldr	r0, [sp, #8]
   0x1fff31b2:	f000 fb05	bl	0x1fff37c0
   0x1fff31b6:	2101    	movs	r1, #1
   0x1fff31b8:	4081    	lsls	r1, r0
   0x1fff31ba:	9802    	ldr	r0, [sp, #8]
   0x1fff31bc:	0700    	lsls	r0, r0, #28
   0x1fff31be:	d016    	beq.n	0x1fff31ee
   0x1fff31c0:	9804    	ldr	r0, [sp, #16]
   0x1fff31c2:	2800    	cmp	r0, #0
   0x1fff31c4:	69e0    	ldr	r0, [r4, #28]
   0x1fff31c6:	d009    	beq.n	0x1fff31dc
   0x1fff31c8:	4308    	orrs	r0, r1
   0x1fff31ca:	61e0    	str	r0, [r4, #28]
   0x1fff31cc:	2e04    	cmp	r6, #4
   0x1fff31ce:	d002    	beq.n	0x1fff31d6
   0x1fff31d0:	2501    	movs	r5, #1
   0x1fff31d2:	036d    	lsls	r5, r5, #13
   0x1fff31d4:	e7e2    	b.n	0x1fff319c
   0x1fff31d6:	2501    	movs	r5, #1
   0x1fff31d8:	032d    	lsls	r5, r5, #12
   0x1fff31da:	e7df    	b.n	0x1fff319c
   0x1fff31dc:	4388    	bics	r0, r1
   0x1fff31de:	61e0    	str	r0, [r4, #28]
   0x1fff31e0:	2e04    	cmp	r6, #4
   0x1fff31e2:	d002    	beq.n	0x1fff31ea
   0x1fff31e4:	69e0    	ldr	r0, [r4, #28]
   0x1fff31e6:	4388    	bics	r0, r1
   0x1fff31e8:	61e0    	str	r0, [r4, #28]
   0x1fff31ea:	69e0    	ldr	r0, [r4, #28]
   0x1fff31ec:	e00f    	b.n	0x1fff320e
   0x1fff31ee:	2e04    	cmp	r6, #4
   0x1fff31f0:	d008    	beq.n	0x1fff3204
   0x1fff31f2:	2501    	movs	r5, #1
   0x1fff31f4:	03ed    	lsls	r5, r5, #15
   0x1fff31f6:	9804    	ldr	r0, [sp, #16]
   0x1fff31f8:	2800    	cmp	r0, #0
   0x1fff31fa:	69e0    	ldr	r0, [r4, #28]
   0x1fff31fc:	d005    	beq.n	0x1fff320a
   0x1fff31fe:	4308    	orrs	r0, r1
   0x1fff3200:	61e0    	str	r0, [r4, #28]
   0x1fff3202:	e7cb    	b.n	0x1fff319c
   0x1fff3204:	2501    	movs	r5, #1
   0x1fff3206:	03ad    	lsls	r5, r5, #14
   0x1fff3208:	e7f5    	b.n	0x1fff31f6
   0x1fff320a:	4388    	bics	r0, r1
   0x1fff320c:	61e0    	str	r0, [r4, #28]
   0x1fff320e:	6838    	ldr	r0, [r7, #0]
   0x1fff3210:	43a8    	bics	r0, r5
   0x1fff3212:	6038    	str	r0, [r7, #0]
   0x1fff3214:	9800    	ldr	r0, [sp, #0]
   0x1fff3216:	b005    	add	sp, #20
   0x1fff3218:	bdf0    	pop	{r4, r5, r6, r7, pc}
   0x1fff321a:	b570    	push	{r4, r5, r6, lr}
   0x1fff321c:	30ff    	adds	r0, #255	@ 0xff
   0x1fff321e:	4613    	mov	r3, r2
   0x1fff3220:	3001    	adds	r0, #1
   0x1fff3222:	6982    	ldr	r2, [r0, #24]
   0x1fff3224:	0708    	lsls	r0, r1, #28
   0x1fff3226:	0ec0    	lsrs	r0, r0, #27
   0x1fff3228:	0609    	lsls	r1, r1, #24
   0x1fff322a:	d500    	bpl.n	0x1fff322e
   0x1fff322c:	1c40    	adds	r0, r0, #1
   0x1fff322e:	6811    	ldr	r1, [r2, #0]
   0x1fff3230:	00c0    	lsls	r0, r0, #3
   0x1fff3232:	1844    	adds	r4, r0, r1
   0x1fff3234:	6820    	ldr	r0, [r4, #0]
   0x1fff3236:	6855    	ldr	r5, [r2, #4]
   0x1fff3238:	0081    	lsls	r1, r0, #2
   0x1fff323a:	d402    	bmi.n	0x1fff3242
   0x1fff323c:	0081    	lsls	r1, r0, #2
   0x1fff323e:	3108    	adds	r1, #8
   0x1fff3240:	d506    	bpl.n	0x1fff3250
   0x1fff3242:	2101    	movs	r1, #1
   0x1fff3244:	0749    	lsls	r1, r1, #29
   0x1fff3246:	4388    	bics	r0, r1
   0x1fff3248:	6020    	str	r0, [r4, #0]
   0x1fff324a:	68a0    	ldr	r0, [r4, #8]
   0x1fff324c:	4388    	bics	r0, r1
   0x1fff324e:	60a0    	str	r0, [r4, #8]
   0x1fff3250:	68a9    	ldr	r1, [r5, #8]
   0x1fff3252:	2608    	movs	r6, #8
   0x1fff3254:	4632    	mov	r2, r6
   0x1fff3256:	4618    	mov	r0, r3
   0x1fff3258:	f000 fe4c	bl	0x1fff3ef4
   0x1fff325c:	6860    	ldr	r0, [r4, #4]
   0x1fff325e:	0e80    	lsrs	r0, r0, #26
   0x1fff3260:	0680    	lsls	r0, r0, #26
   0x1fff3262:	6060    	str	r0, [r4, #4]
   0x1fff3264:	68a9    	ldr	r1, [r5, #8]
   0x1fff3266:	0289    	lsls	r1, r1, #10
   0x1fff3268:	0c09    	lsrs	r1, r1, #16
   0x1fff326a:	4308    	orrs	r0, r1
   0x1fff326c:	6060    	str	r0, [r4, #4]
   0x1fff326e:	4630    	mov	r0, r6
   0x1fff3270:	bd70    	pop	{r4, r5, r6, pc}
   0x1fff3272:	2000    	movs	r0, #0
   0x1fff3274:	4770    	bx	lr
   0x1fff3276:	b5f0    	push	{r4, r5, r6, r7, lr}
   0x1fff3278:	4603    	mov	r3, r0
   0x1fff327a:	460f    	mov	r7, r1
   0x1fff327c:	33ff    	adds	r3, #255	@ 0xff
   0x1fff327e:	3301    	adds	r3, #1
   0x1fff3280:	0709    	lsls	r1, r1, #28
   0x1fff3282:	0ec9    	lsrs	r1, r1, #27
   0x1fff3284:	b085    	sub	sp, #20
   0x1fff3286:	4610    	mov	r0, r2
   0x1fff3288:	699d    	ldr	r5, [r3, #24]
   0x1fff328a:	9102    	str	r1, [sp, #8]
   0x1fff328c:	063a    	lsls	r2, r7, #24
   0x1fff328e:	d500    	bpl.n	0x1fff3292
   0x1fff3290:	1c49    	adds	r1, r1, #1
   0x1fff3292:	004e    	lsls	r6, r1, #1
   0x1fff3294:	6829    	ldr	r1, [r5, #0]
   0x1fff3296:	00b2    	lsls	r2, r6, #2
   0x1fff3298:	188c    	adds	r4, r1, r2
   0x1fff329a:	6869    	ldr	r1, [r5, #4]
   0x1fff329c:	9101    	str	r1, [sp, #4]
   0x1fff329e:	0739    	lsls	r1, r7, #28
   0x1fff32a0:	d00a    	beq.n	0x1fff32b8
   0x1fff32a2:	9902    	ldr	r1, [sp, #8]
   0x1fff32a4:	063a    	lsls	r2, r7, #24
   0x1fff32a6:	d500    	bpl.n	0x1fff32aa
   0x1fff32a8:	1c49    	adds	r1, r1, #1
   0x1fff32aa:	2201    	movs	r2, #1
   0x1fff32ac:	408a    	lsls	r2, r1
   0x1fff32ae:	69a9    	ldr	r1, [r5, #24]
   0x1fff32b0:	420a    	tst	r2, r1
   0x1fff32b2:	d001    	beq.n	0x1fff32b8
   0x1fff32b4:	1d24    	adds	r4, r4, #4
   0x1fff32b6:	1c76    	adds	r6, r6, #1
   0x1fff32b8:	6821    	ldr	r1, [r4, #0]
   0x1fff32ba:	9b01    	ldr	r3, [sp, #4]
   0x1fff32bc:	0189    	lsls	r1, r1, #6
   0x1fff32be:	0d8a    	lsrs	r2, r1, #22
   0x1fff32c0:	00f1    	lsls	r1, r6, #3
   0x1fff32c2:	18cb    	adds	r3, r1, r3
   0x1fff32c4:	9100    	str	r1, [sp, #0]
   0x1fff32c6:	9304    	str	r3, [sp, #16]
   0x1fff32c8:	685b    	ldr	r3, [r3, #4]
   0x1fff32ca:	1a9a    	subs	r2, r3, r2
   0x1fff32cc:	9203    	str	r2, [sp, #12]
   0x1fff32ce:	9a01    	ldr	r2, [sp, #4]
   0x1fff32d0:	5851    	ldr	r1, [r2, r1]
   0x1fff32d2:	9a03    	ldr	r2, [sp, #12]
   0x1fff32d4:	f000 fe0e	bl	0x1fff3ef4
   0x1fff32d8:	6820    	ldr	r0, [r4, #0]
   0x1fff32da:	0e80    	lsrs	r0, r0, #26
   0x1fff32dc:	0680    	lsls	r0, r0, #26
   0x1fff32de:	6020    	str	r0, [r4, #0]
   0x1fff32e0:	0739    	lsls	r1, r7, #28
   0x1fff32e2:	d02d    	beq.n	0x1fff3340
   0x1fff32e4:	9802    	ldr	r0, [sp, #8]
   0x1fff32e6:	0639    	lsls	r1, r7, #24
   0x1fff32e8:	d500    	bpl.n	0x1fff32ec
   0x1fff32ea:	1c40    	adds	r0, r0, #1
   0x1fff32ec:	2301    	movs	r3, #1
   0x1fff32ee:	4619    	mov	r1, r3
   0x1fff32f0:	4081    	lsls	r1, r0
   0x1fff32f2:	69a8    	ldr	r0, [r5, #24]
   0x1fff32f4:	4041    	eors	r1, r0
   0x1fff32f6:	61a9    	str	r1, [r5, #24]
   0x1fff32f8:	69a8    	ldr	r0, [r5, #24]
   0x1fff32fa:	6a29    	ldr	r1, [r5, #32]
   0x1fff32fc:	69ca    	ldr	r2, [r1, #28]
   0x1fff32fe:	4010    	ands	r0, r2
   0x1fff3300:	61a8    	str	r0, [r5, #24]
   0x1fff3302:	e009    	b.n	0x1fff3318
   0x1fff3304:	0001    	movs	r1, r0
   0x1fff3306:	0004    	movs	r4, r0
   0x1fff3308:	03ff    	lsls	r7, r7, #15
   0x1fff330a:	8000    	strh	r0, [r0, #0]
   0x1fff330c:	0003    	movs	r3, r0
   0x1fff330e:	8000    	strh	r0, [r0, #0]
   0x1fff3310:	0000    	movs	r0, r0
   0x1fff3312:	2000    	movs	r0, #0
   0x1fff3314:	ffff fc00	vdup.8	d31, d0[7]
   0x1fff3318:	9802    	ldr	r0, [sp, #8]
   0x1fff331a:	063a    	lsls	r2, r7, #24
   0x1fff331c:	d500    	bpl.n	0x1fff3320
   0x1fff331e:	1c40    	adds	r0, r0, #1
   0x1fff3320:	461a    	mov	r2, r3
   0x1fff3322:	4083    	lsls	r3, r0
   0x1fff3324:	69c8    	ldr	r0, [r1, #28]
   0x1fff3326:	4203    	tst	r3, r0
   0x1fff3328:	d01b    	beq.n	0x1fff3362
   0x1fff332a:	9802    	ldr	r0, [sp, #8]
   0x1fff332c:	0639    	lsls	r1, r7, #24
   0x1fff332e:	d500    	bpl.n	0x1fff3332
   0x1fff3330:	1c40    	adds	r0, r0, #1
   0x1fff3332:	4082    	lsls	r2, r0
   0x1fff3334:	69a8    	ldr	r0, [r5, #24]
   0x1fff3336:	4202    	tst	r2, r0
   0x1fff3338:	d011    	beq.n	0x1fff335e
   0x1fff333a:	1d24    	adds	r4, r4, #4
   0x1fff333c:	1c76    	adds	r6, r6, #1
   0x1fff333e:	e010    	b.n	0x1fff3362
   0x1fff3340:	9904    	ldr	r1, [sp, #16]
   0x1fff3342:	6849    	ldr	r1, [r1, #4]
   0x1fff3344:	9a01    	ldr	r2, [sp, #4]
   0x1fff3346:	0409    	lsls	r1, r1, #16
   0x1fff3348:	4308    	orrs	r0, r1
   0x1fff334a:	9900    	ldr	r1, [sp, #0]
   0x1fff334c:	5851    	ldr	r1, [r2, r1]
   0x1fff334e:	2201    	movs	r2, #1
   0x1fff3350:	0289    	lsls	r1, r1, #10
   0x1fff3352:	0c09    	lsrs	r1, r1, #16
   0x1fff3354:	07d2    	lsls	r2, r2, #31
   0x1fff3356:	4311    	orrs	r1, r2
   0x1fff3358:	4308    	orrs	r0, r1
   0x1fff335a:	6020    	str	r0, [r4, #0]
   0x1fff335c:	e011    	b.n	0x1fff3382
   0x1fff335e:	1f24    	subs	r4, r4, #4
   0x1fff3360:	1e76    	subs	r6, r6, #1
   0x1fff3362:	9a01    	ldr	r2, [sp, #4]
   0x1fff3364:	00f0    	lsls	r0, r6, #3
   0x1fff3366:	1882    	adds	r2, r0, r2
   0x1fff3368:	6821    	ldr	r1, [r4, #0]
   0x1fff336a:	6852    	ldr	r2, [r2, #4]
   0x1fff336c:	0412    	lsls	r2, r2, #16
   0x1fff336e:	4311    	orrs	r1, r2
   0x1fff3370:	9a01    	ldr	r2, [sp, #4]
   0x1fff3372:	5810    	ldr	r0, [r2, r0]
   0x1fff3374:	2201    	movs	r2, #1
   0x1fff3376:	0280    	lsls	r0, r0, #10
   0x1fff3378:	0c00    	lsrs	r0, r0, #16
   0x1fff337a:	07d2    	lsls	r2, r2, #31
   0x1fff337c:	4310    	orrs	r0, r2
   0x1fff337e:	4301    	orrs	r1, r0
   0x1fff3380:	6021    	str	r1, [r4, #0]
   0x1fff3382:	9803    	ldr	r0, [sp, #12]
   0x1fff3384:	e747    	b.n	0x1fff3216
   0x1fff3386:	b5ff    	push	{r0, r1, r2, r3, r4, r5, r6, r7, lr}
   0x1fff3388:	30ff    	adds	r0, #255	@ 0xff
   0x1fff338a:	3001    	adds	r0, #1
   0x1fff338c:	6986    	ldr	r6, [r0, #24]
   0x1fff338e:	0708    	lsls	r0, r1, #28
   0x1fff3390:	0ec0    	lsrs	r0, r0, #27
   0x1fff3392:	460d    	mov	r5, r1
   0x1fff3394:	b081    	sub	sp, #4
   0x1fff3396:	469e    	mov	lr, r3
   0x1fff3398:	4607    	mov	r7, r0
   0x1fff339a:	0609    	lsls	r1, r1, #24
   0x1fff339c:	d500    	bpl.n	0x1fff33a0
   0x1fff339e:	1c78    	adds	r0, r7, #1
   0x1fff33a0:	0040    	lsls	r0, r0, #1
   0x1fff33a2:	6831    	ldr	r1, [r6, #0]
   0x1fff33a4:	0082    	lsls	r2, r0, #2
   0x1fff33a6:	188c    	adds	r4, r1, r2
   0x1fff33a8:	6871    	ldr	r1, [r6, #4]
   0x1fff33aa:	072a    	lsls	r2, r5, #28
   0x1fff33ac:	d03d    	beq.n	0x1fff342a
   0x1fff33ae:	463a    	mov	r2, r7
   0x1fff33b0:	062b    	lsls	r3, r5, #24
   0x1fff33b2:	d500    	bpl.n	0x1fff33b6
   0x1fff33b4:	1c7a    	adds	r2, r7, #1
   0x1fff33b6:	4613    	mov	r3, r2
   0x1fff33b8:	2201    	movs	r2, #1
   0x1fff33ba:	409a    	lsls	r2, r3
   0x1fff33bc:	6a33    	ldr	r3, [r6, #32]
   0x1fff33be:	469c    	mov	r12, r3
   0x1fff33c0:	69db    	ldr	r3, [r3, #28]
   0x1fff33c2:	421a    	tst	r2, r3
   0x1fff33c4:	d00b    	beq.n	0x1fff33de
   0x1fff33c6:	463a    	mov	r2, r7
   0x1fff33c8:	062b    	lsls	r3, r5, #24
   0x1fff33ca:	d500    	bpl.n	0x1fff33ce
   0x1fff33cc:	1c7a    	adds	r2, r7, #1
   0x1fff33ce:	2301    	movs	r3, #1
   0x1fff33d0:	4093    	lsls	r3, r2
   0x1fff33d2:	4662    	mov	r2, r12
   0x1fff33d4:	6992    	ldr	r2, [r2, #24]
   0x1fff33d6:	4213    	tst	r3, r2
   0x1fff33d8:	d001    	beq.n	0x1fff33de
   0x1fff33da:	1d24    	adds	r4, r4, #4
   0x1fff33dc:	1c40    	adds	r0, r0, #1
   0x1fff33de:	6822    	ldr	r2, [r4, #0]
   0x1fff33e0:	0e93    	lsrs	r3, r2, #26
   0x1fff33e2:	069b    	lsls	r3, r3, #26
   0x1fff33e4:	4672    	mov	r2, lr
   0x1fff33e6:	0592    	lsls	r2, r2, #22
   0x1fff33e8:	0d92    	lsrs	r2, r2, #22
   0x1fff33ea:	6023    	str	r3, [r4, #0]
   0x1fff33ec:	9204    	str	r2, [sp, #16]
   0x1fff33ee:	0412    	lsls	r2, r2, #16
   0x1fff33f0:	469c    	mov	r12, r3
   0x1fff33f2:	00c0    	lsls	r0, r0, #3
   0x1fff33f4:	580b    	ldr	r3, [r1, r0]
   0x1fff33f6:	029b    	lsls	r3, r3, #10
   0x1fff33f8:	0c1b    	lsrs	r3, r3, #16
   0x1fff33fa:	431a    	orrs	r2, r3
   0x1fff33fc:	4663    	mov	r3, r12
   0x1fff33fe:	431a    	orrs	r2, r3
   0x1fff3400:	6022    	str	r2, [r4, #0]
   0x1fff3402:	5808    	ldr	r0, [r1, r0]
   0x1fff3404:	9a04    	ldr	r2, [sp, #16]
   0x1fff3406:	9903    	ldr	r1, [sp, #12]
   0x1fff3408:	f000 fd74	bl	0x1fff3ef4
   0x1fff340c:	6820    	ldr	r0, [r4, #0]
   0x1fff340e:	0081    	lsls	r1, r0, #2
   0x1fff3410:	d515    	bpl.n	0x1fff343e
   0x1fff3412:	0729    	lsls	r1, r5, #28
   0x1fff3414:	d013    	beq.n	0x1fff343e
   0x1fff3416:	0628    	lsls	r0, r5, #24
   0x1fff3418:	d500    	bpl.n	0x1fff341c
   0x1fff341a:	1c7f    	adds	r7, r7, #1
   0x1fff341c:	2001    	movs	r0, #1
   0x1fff341e:	6971    	ldr	r1, [r6, #20]
   0x1fff3420:	40b8    	lsls	r0, r7
   0x1fff3422:	4308    	orrs	r0, r1
   0x1fff3424:	6170    	str	r0, [r6, #20]
   0x1fff3426:	9804    	ldr	r0, [sp, #16]
   0x1fff3428:	e6f5    	b.n	0x1fff3216
   0x1fff342a:	4623    	mov	r3, r4
   0x1fff342c:	3b40    	subs	r3, #64	@ 0x40
   0x1fff342e:	469c    	mov	r12, r3
   0x1fff3430:	6b9a    	ldr	r2, [r3, #56]	@ 0x38
   0x1fff3432:	2301    	movs	r3, #1
   0x1fff3434:	07db    	lsls	r3, r3, #31
   0x1fff3436:	431a    	orrs	r2, r3
   0x1fff3438:	4663    	mov	r3, r12
   0x1fff343a:	639a    	str	r2, [r3, #56]	@ 0x38
   0x1fff343c:	e7cf    	b.n	0x1fff33de
   0x1fff343e:	2101    	movs	r1, #1
   0x1fff3440:	07c9    	lsls	r1, r1, #31
   0x1fff3442:	4308    	orrs	r0, r1
   0x1fff3444:	6020    	str	r0, [r4, #0]
   0x1fff3446:	e7ee    	b.n	0x1fff3426
   0x1fff3448:	b5f8    	push	{r3, r4, r5, r6, r7, lr}
   0x1fff344a:	4606    	mov	r6, r0
   0x1fff344c:	30ff    	adds	r0, #255	@ 0xff
   0x1fff344e:	3001    	adds	r0, #1
   0x1fff3450:	6984    	ldr	r4, [r0, #24]
   0x1fff3452:	2100    	movs	r1, #0
   0x1fff3454:	4630    	mov	r0, r6
   0x1fff3456:	30e0    	adds	r0, #224	@ 0xe0
   0x1fff3458:	9000    	str	r0, [sp, #0]
   0x1fff345a:	7281    	strb	r1, [r0, #10]
   0x1fff345c:	4607    	mov	r7, r0
   0x1fff345e:	61a1    	str	r1, [r4, #24]
   0x1fff3460:	6161    	str	r1, [r4, #20]
   0x1fff3462:	6a21    	ldr	r1, [r4, #32]
   0x1fff3464:	6820    	ldr	r0, [r4, #0]
   0x1fff3466:	6088    	str	r0, [r1, #8]
   0x1fff3468:	68a0    	ldr	r0, [r4, #8]
   0x1fff346a:	6a21    	ldr	r1, [r4, #32]
   0x1fff346c:	60c8    	str	r0, [r1, #12]
   0x1fff346e:	7a78    	ldrb	r0, [r7, #9]
   0x1fff3470:	6865    	ldr	r5, [r4, #4]
   0x1fff3472:	0101    	lsls	r1, r0, #4
   0x1fff3474:	6820    	ldr	r0, [r4, #0]
   0x1fff3476:	f000 fd56	bl	0x1fff3f26
   0x1fff347a:	7a78    	ldrb	r0, [r7, #9]
   0x1fff347c:	0101    	lsls	r1, r0, #4
   0x1fff347e:	6860    	ldr	r0, [r4, #4]
   0x1fff3480:	f000 fd51	bl	0x1fff3f26
   0x1fff3484:	2300    	movs	r3, #0
   0x1fff3486:	6822    	ldr	r2, [r4, #0]
   0x1fff3488:	4619    	mov	r1, r3
   0x1fff348a:	36c0    	adds	r6, #192	@ 0xc0
   0x1fff348c:	68a0    	ldr	r0, [r4, #8]
   0x1fff348e:	018f    	lsls	r7, r1, #6
   0x1fff3490:	46bc    	mov	r12, r7
   0x1fff3492:	6b37    	ldr	r7, [r6, #48]	@ 0x30
   0x1fff3494:	4460    	add	r0, r12
   0x1fff3496:	0280    	lsls	r0, r0, #10
   0x1fff3498:	79ff    	ldrb	r7, [r7, #7]
   0x1fff349a:	0c00    	lsrs	r0, r0, #16
   0x1fff349c:	043f    	lsls	r7, r7, #16
   0x1fff349e:	4338    	orrs	r0, r7
   0x1fff34a0:	6010    	str	r0, [r2, #0]
   0x1fff34a2:	68a0    	ldr	r0, [r4, #8]
   0x1fff34a4:	4667    	mov	r7, r12
   0x1fff34a6:	19c7    	adds	r7, r0, r7
   0x1fff34a8:	00d8    	lsls	r0, r3, #3
   0x1fff34aa:	502f    	str	r7, [r5, r0]
   0x1fff34ac:	2901    	cmp	r1, #1
   0x1fff34ae:	d016    	beq.n	0x1fff34de
   0x1fff34b0:	6b37    	ldr	r7, [r6, #48]	@ 0x30
   0x1fff34b2:	79ff    	ldrb	r7, [r7, #7]
   0x1fff34b4:	1940    	adds	r0, r0, r5
   0x1fff34b6:	6047    	str	r7, [r0, #4]
   0x1fff34b8:	1d12    	adds	r2, r2, #4
   0x1fff34ba:	1c5b    	adds	r3, r3, #1
   0x1fff34bc:	1c49    	adds	r1, r1, #1
   0x1fff34be:	2902    	cmp	r1, #2
   0x1fff34c0:	d3e4    	bcc.n	0x1fff348c
   0x1fff34c2:	6b30    	ldr	r0, [r6, #48]	@ 0x30
   0x1fff34c4:	68a1    	ldr	r1, [r4, #8]
   0x1fff34c6:	79c0    	ldrb	r0, [r0, #7]
   0x1fff34c8:	0400    	lsls	r0, r0, #16
   0x1fff34ca:	0289    	lsls	r1, r1, #10
   0x1fff34cc:	0c09    	lsrs	r1, r1, #16
   0x1fff34ce:	4308    	orrs	r0, r1
   0x1fff34d0:	c201    	stmia	r2!, {r0}
   0x1fff34d2:	68a0    	ldr	r0, [r4, #8]
   0x1fff34d4:	00d9    	lsls	r1, r3, #3
   0x1fff34d6:	5068    	str	r0, [r5, r1]
   0x1fff34d8:	2004    	movs	r0, #4
   0x1fff34da:	0701    	lsls	r1, r0, #28
   0x1fff34dc:	e003    	b.n	0x1fff34e6
   0x1fff34de:	2708    	movs	r7, #8
   0x1fff34e0:	e7e8    	b.n	0x1fff34b4
   0x1fff34e2:	c202    	stmia	r2!, {r1}
   0x1fff34e4:	1c40    	adds	r0, r0, #1
   0x1fff34e6:	9b00    	ldr	r3, [sp, #0]
   0x1fff34e8:	7a5b    	ldrb	r3, [r3, #9]
   0x1fff34ea:	009b    	lsls	r3, r3, #2
   0x1fff34ec:	4283    	cmp	r3, r0
   0x1fff34ee:	d8f8    	bhi.n	0x1fff34e2
   0x1fff34f0:	68e0    	ldr	r0, [r4, #12]
   0x1fff34f2:	6120    	str	r0, [r4, #16]
   0x1fff34f4:	6a21    	ldr	r1, [r4, #32]
   0x1fff34f6:	2000    	movs	r0, #0
   0x1fff34f8:	6188    	str	r0, [r1, #24]
   0x1fff34fa:	6a21    	ldr	r1, [r4, #32]
   0x1fff34fc:	6148    	str	r0, [r1, #20]
   0x1fff34fe:	6a21    	ldr	r1, [r4, #32]
   0x1fff3500:	48b3    	ldr	r0, [pc, #716]	@ (0x1fff37d0)
   0x1fff3502:	61c8    	str	r0, [r1, #28]
   0x1fff3504:	6a21    	ldr	r1, [r4, #32]
   0x1fff3506:	48b3    	ldr	r0, [pc, #716]	@ (0x1fff37d4)
   0x1fff3508:	6208    	str	r0, [r1, #32]
   0x1fff350a:	6a21    	ldr	r1, [r4, #32]
   0x1fff350c:	48b2    	ldr	r0, [pc, #712]	@ (0x1fff37d8)
   0x1fff350e:	6248    	str	r0, [r1, #36]	@ 0x24
   0x1fff3510:	6a20    	ldr	r0, [r4, #32]
   0x1fff3512:	6801    	ldr	r1, [r0, #0]
   0x1fff3514:	2280    	movs	r2, #128	@ 0x80
   0x1fff3516:	4311    	orrs	r1, r2
   0x1fff3518:	6001    	str	r1, [r0, #0]
   0x1fff351a:	bdf8    	pop	{r3, r4, r5, r6, r7, pc}
   0x1fff351c:	b5f7    	push	{r0, r1, r2, r4, r5, r6, r7, lr}
   0x1fff351e:	b084    	sub	sp, #16
   0x1fff3520:	2500    	movs	r5, #0
   0x1fff3522:	9501    	str	r5, [sp, #4]
   0x1fff3524:	6850    	ldr	r0, [r2, #4]
   0x1fff3526:	4614    	mov	r4, r2
   0x1fff3528:	0601    	lsls	r1, r0, #24
   0x1fff352a:	0e09    	lsrs	r1, r1, #24
   0x1fff352c:	d16f    	bne.n	0x1fff360e
   0x1fff352e:	9002    	str	r0, [sp, #8]
   0x1fff3530:	7b22    	ldrb	r2, [r4, #12]
   0x1fff3532:	0111    	lsls	r1, r2, #4
   0x1fff3534:	1840    	adds	r0, r0, r1
   0x1fff3536:	0152    	lsls	r2, r2, #5
   0x1fff3538:	1886    	adds	r6, r0, r2
   0x1fff353a:	9003    	str	r0, [sp, #12]
   0x1fff353c:	4630    	mov	r0, r6
   0x1fff353e:	3028    	adds	r0, #40	@ 0x28
   0x1fff3540:	1857    	adds	r7, r2, r1
   0x1fff3542:	3728    	adds	r7, #40	@ 0x28
   0x1fff3544:	6060    	str	r0, [r4, #4]
   0x1fff3546:	e002    	b.n	0x1fff354e
   0x1fff3548:	1c40    	adds	r0, r0, #1
   0x1fff354a:	1c7f    	adds	r7, r7, #1
   0x1fff354c:	6060    	str	r0, [r4, #4]
   0x1fff354e:	0781    	lsls	r1, r0, #30
   0x1fff3550:	d1fa    	bne.n	0x1fff3548
   0x1fff3552:	9000    	str	r0, [sp, #0]
   0x1fff3554:	30ff    	adds	r0, #255	@ 0xff
   0x1fff3556:	306d    	adds	r0, #109	@ 0x6d
   0x1fff3558:	6060    	str	r0, [r4, #4]
   0x1fff355a:	37ff    	adds	r7, #255	@ 0xff
   0x1fff355c:	376d    	adds	r7, #109	@ 0x6d
   0x1fff355e:	4622    	mov	r2, r4
   0x1fff3560:	9905    	ldr	r1, [sp, #20]
   0x1fff3562:	9800    	ldr	r0, [sp, #0]
   0x1fff3564:	f7ff fa47	bl	0x1fff29f6
   0x1fff3568:	2128    	movs	r1, #40	@ 0x28
   0x1fff356a:	4630    	mov	r0, r6
   0x1fff356c:	f000 fcdb	bl	0x1fff3f26
   0x1fff3570:	9900    	ldr	r1, [sp, #0]
   0x1fff3572:	6271    	str	r1, [r6, #36]	@ 0x24
   0x1fff3574:	9900    	ldr	r1, [sp, #0]
   0x1fff3576:	31ff    	adds	r1, #255	@ 0xff
   0x1fff3578:	3101    	adds	r1, #1
   0x1fff357a:	618e    	str	r6, [r1, #24]
   0x1fff357c:	6820    	ldr	r0, [r4, #0]
   0x1fff357e:	6230    	str	r0, [r6, #32]
   0x1fff3580:	9802    	ldr	r0, [sp, #8]
   0x1fff3582:	6030    	str	r0, [r6, #0]
   0x1fff3584:	9803    	ldr	r0, [sp, #12]
   0x1fff3586:	6070    	str	r0, [r6, #4]
   0x1fff3588:	e002    	b.n	0x1fff3590
   0x1fff358a:	1c40    	adds	r0, r0, #1
   0x1fff358c:	1c7f    	adds	r7, r7, #1
   0x1fff358e:	6060    	str	r0, [r4, #4]
   0x1fff3590:	6860    	ldr	r0, [r4, #4]
   0x1fff3592:	0681    	lsls	r1, r0, #26
   0x1fff3594:	d1f9    	bne.n	0x1fff358a
   0x1fff3596:	60b0    	str	r0, [r6, #8]
   0x1fff3598:	6860    	ldr	r0, [r4, #4]
   0x1fff359a:	3080    	adds	r0, #128	@ 0x80
   0x1fff359c:	3780    	adds	r7, #128	@ 0x80
   0x1fff359e:	6060    	str	r0, [r4, #4]
   0x1fff35a0:	46bc    	mov	r12, r7
   0x1fff35a2:	60f0    	str	r0, [r6, #12]
   0x1fff35a4:	9805    	ldr	r0, [sp, #20]
   0x1fff35a6:	6880    	ldr	r0, [r0, #8]
   0x1fff35a8:	e027    	b.n	0x1fff35fa
   0x1fff35aa:	4602    	mov	r2, r0
   0x1fff35ac:	4611    	mov	r1, r2
   0x1fff35ae:	e017    	b.n	0x1fff35e0
   0x1fff35b0:	4611    	mov	r1, r2
   0x1fff35b2:	7812    	ldrb	r2, [r2, #0]
   0x1fff35b4:	784b    	ldrb	r3, [r1, #1]
   0x1fff35b6:	1852    	adds	r2, r2, r1
   0x1fff35b8:	2b05    	cmp	r3, #5
   0x1fff35ba:	d111    	bne.n	0x1fff35e0
   0x1fff35bc:	788b    	ldrb	r3, [r1, #2]
   0x1fff35be:	071f    	lsls	r7, r3, #28
   0x1fff35c0:	7b23    	ldrb	r3, [r4, #12]
   0x1fff35c2:	0f3f    	lsrs	r7, r7, #28
   0x1fff35c4:	1e5b    	subs	r3, r3, #1
   0x1fff35c6:	429f    	cmp	r7, r3
   0x1fff35c8:	dd02    	ble.n	0x1fff35d0
   0x1fff35ca:	4884    	ldr	r0, [pc, #528]	@ (0x1fff37dc)
   0x1fff35cc:	b007    	add	sp, #28
   0x1fff35ce:	bdf0    	pop	{r4, r5, r6, r7, pc}
   0x1fff35d0:	794b    	ldrb	r3, [r1, #5]
   0x1fff35d2:	790f    	ldrb	r7, [r1, #4]
   0x1fff35d4:	021b    	lsls	r3, r3, #8
   0x1fff35d6:	433b    	orrs	r3, r7
   0x1fff35d8:	333f    	adds	r3, #63	@ 0x3f
   0x1fff35da:	099b    	lsrs	r3, r3, #6
   0x1fff35dc:	019b    	lsls	r3, r3, #6
   0x1fff35de:	18ed    	adds	r5, r5, r3
   0x1fff35e0:	7809    	ldrb	r1, [r1, #0]
   0x1fff35e2:	2900    	cmp	r1, #0
   0x1fff35e4:	d1e4    	bne.n	0x1fff35b0
   0x1fff35e6:	9901    	ldr	r1, [sp, #4]
   0x1fff35e8:	42a9    	cmp	r1, r5
   0x1fff35ea:	d200    	bcs.n	0x1fff35ee
   0x1fff35ec:	9501    	str	r5, [sp, #4]
   0x1fff35ee:	78c1    	ldrb	r1, [r0, #3]
   0x1fff35f0:	7882    	ldrb	r2, [r0, #2]
   0x1fff35f2:	0209    	lsls	r1, r1, #8
   0x1fff35f4:	2500    	movs	r5, #0
   0x1fff35f6:	4311    	orrs	r1, r2
   0x1fff35f8:	1808    	adds	r0, r1, r0
   0x1fff35fa:	7801    	ldrb	r1, [r0, #0]
   0x1fff35fc:	2900    	cmp	r1, #0
   0x1fff35fe:	d1d4    	bne.n	0x1fff35aa
   0x1fff3600:	9801    	ldr	r0, [sp, #4]
   0x1fff3602:	0041    	lsls	r1, r0, #1
   0x1fff3604:	4660    	mov	r0, r12
   0x1fff3606:	1808    	adds	r0, r1, r0
   0x1fff3608:	68a1    	ldr	r1, [r4, #8]
   0x1fff360a:	4281    	cmp	r1, r0
   0x1fff360c:	d202    	bcs.n	0x1fff3614
   0x1fff360e:	4873    	ldr	r0, [pc, #460]	@ (0x1fff37dc)
   0x1fff3610:	1c40    	adds	r0, r0, #1
   0x1fff3612:	e7db    	b.n	0x1fff35cc
   0x1fff3614:	6862    	ldr	r2, [r4, #4]
   0x1fff3616:	1812    	adds	r2, r2, r0
   0x1fff3618:	6062    	str	r2, [r4, #4]
   0x1fff361a:	1a08    	subs	r0, r1, r0
   0x1fff361c:	60a0    	str	r0, [r4, #8]
   0x1fff361e:	4a70    	ldr	r2, [pc, #448]	@ (0x1fff37e0)
   0x1fff3620:	2000    	movs	r0, #0
   0x1fff3622:	9900    	ldr	r1, [sp, #0]
   0x1fff3624:	0083    	lsls	r3, r0, #2
   0x1fff3626:	1859    	adds	r1, r3, r1
   0x1fff3628:	6d8b    	ldr	r3, [r1, #88]	@ 0x58
   0x1fff362a:	2b00    	cmp	r3, #0
   0x1fff362c:	d100    	bne.n	0x1fff3630
   0x1fff362e:	658a    	str	r2, [r1, #88]	@ 0x58
   0x1fff3630:	1c40    	adds	r0, r0, #1
   0x1fff3632:	280a    	cmp	r0, #10
   0x1fff3634:	d3f5    	bcc.n	0x1fff3622
   0x1fff3636:	6a31    	ldr	r1, [r6, #32]
   0x1fff3638:	2000    	movs	r0, #0
   0x1fff363a:	6008    	str	r0, [r1, #0]
   0x1fff363c:	9800    	ldr	r0, [sp, #0]
   0x1fff363e:	f7ff ff03	bl	0x1fff3448
   0x1fff3642:	2100    	movs	r1, #0
   0x1fff3644:	9800    	ldr	r0, [sp, #0]
   0x1fff3646:	f7ff fc4e	bl	0x1fff2ee6
   0x1fff364a:	9904    	ldr	r1, [sp, #16]
   0x1fff364c:	9800    	ldr	r0, [sp, #0]
   0x1fff364e:	6008    	str	r0, [r1, #0]
   0x1fff3650:	2000    	movs	r0, #0
   0x1fff3652:	e7bb    	b.n	0x1fff35cc
   0x1fff3654:	b5f1    	push	{r0, r4, r5, r6, r7, lr}
   0x1fff3656:	b084    	sub	sp, #16
   0x1fff3658:	20ff    	movs	r0, #255	@ 0xff
   0x1fff365a:	9c04    	ldr	r4, [sp, #16]
   0x1fff365c:	3019    	adds	r0, #25
   0x1fff365e:	5906    	ldr	r6, [r0, r4]
   0x1fff3660:	6a30    	ldr	r0, [r6, #32]
   0x1fff3662:	6a01    	ldr	r1, [r0, #32]
   0x1fff3664:	6201    	str	r1, [r0, #32]
   0x1fff3666:	6a47    	ldr	r7, [r0, #36]	@ 0x24
   0x1fff3668:	400f    	ands	r7, r1
   0x1fff366a:	6841    	ldr	r1, [r0, #4]
   0x1fff366c:	0449    	lsls	r1, r1, #17
   0x1fff366e:	0f09    	lsrs	r1, r1, #28
   0x1fff3670:	9100    	str	r1, [sp, #0]
   0x1fff3672:	2f00    	cmp	r7, #0
   0x1fff3674:	da33    	bge.n	0x1fff36de
   0x1fff3676:	6805    	ldr	r5, [r0, #0]
   0x1fff3678:	0169    	lsls	r1, r5, #5
   0x1fff367a:	d510    	bpl.n	0x1fff369e
   0x1fff367c:	6801    	ldr	r1, [r0, #0]
   0x1fff367e:	2201    	movs	r2, #1
   0x1fff3680:	0692    	lsls	r2, r2, #26
   0x1fff3682:	4311    	orrs	r1, r2
   0x1fff3684:	6001    	str	r1, [r0, #0]
   0x1fff3686:	9804    	ldr	r0, [sp, #16]
   0x1fff3688:	f7ff fede	bl	0x1fff3448
   0x1fff368c:	4620    	mov	r0, r4
   0x1fff368e:	f7fe fdc0	bl	0x1fff2212
   0x1fff3692:	6aa1    	ldr	r1, [r4, #40]	@ 0x28
   0x1fff3694:	2900    	cmp	r1, #0
   0x1fff3696:	d001    	beq.n	0x1fff369c
   0x1fff3698:	9804    	ldr	r0, [sp, #16]
   0x1fff369a:	4788    	blx	r1
   0x1fff369c:	e5bb    	b.n	0x1fff3216
   0x1fff369e:	01e9    	lsls	r1, r5, #7
   0x1fff36a0:	d50a    	bpl.n	0x1fff36b8
   0x1fff36a2:	6801    	ldr	r1, [r0, #0]
   0x1fff36a4:	2201    	movs	r2, #1
   0x1fff36a6:	0612    	lsls	r2, r2, #24
   0x1fff36a8:	4311    	orrs	r1, r2
   0x1fff36aa:	6001    	str	r1, [r0, #0]
   0x1fff36ac:	6ba2    	ldr	r2, [r4, #56]	@ 0x38
   0x1fff36ae:	2a00    	cmp	r2, #0
   0x1fff36b0:	d002    	beq.n	0x1fff36b8
   0x1fff36b2:	2100    	movs	r1, #0
   0x1fff36b4:	9804    	ldr	r0, [sp, #16]
   0x1fff36b6:	4790    	blx	r2
   0x1fff36b8:	01a8    	lsls	r0, r5, #6
   0x1fff36ba:	d510    	bpl.n	0x1fff36de
   0x1fff36bc:	6a30    	ldr	r0, [r6, #32]
   0x1fff36be:	6801    	ldr	r1, [r0, #0]
   0x1fff36c0:	2201    	movs	r2, #1
   0x1fff36c2:	0652    	lsls	r2, r2, #25
   0x1fff36c4:	4311    	orrs	r1, r2
   0x1fff36c6:	6001    	str	r1, [r0, #0]
   0x1fff36c8:	03a8    	lsls	r0, r5, #14
   0x1fff36ca:	d503    	bpl.n	0x1fff36d4
   0x1fff36cc:	6ae1    	ldr	r1, [r4, #44]	@ 0x2c
   0x1fff36ce:	2900    	cmp	r1, #0
   0x1fff36d0:	d103    	bne.n	0x1fff36da
   0x1fff36d2:	e004    	b.n	0x1fff36de
   0x1fff36d4:	6b21    	ldr	r1, [r4, #48]	@ 0x30
   0x1fff36d6:	2900    	cmp	r1, #0
   0x1fff36d8:	d001    	beq.n	0x1fff36de
   0x1fff36da:	9804    	ldr	r0, [sp, #16]
   0x1fff36dc:	4788    	blx	r1
   0x1fff36de:	05b8    	lsls	r0, r7, #22
   0x1fff36e0:	d058    	beq.n	0x1fff3794
   0x1fff36e2:	4620    	mov	r0, r4
   0x1fff36e4:	30e0    	adds	r0, #224	@ 0xe0
   0x1fff36e6:	9001    	str	r0, [sp, #4]
   0x1fff36e8:	7a40    	ldrb	r0, [r0, #9]
   0x1fff36ea:	2500    	movs	r5, #0
   0x1fff36ec:	0040    	lsls	r0, r0, #1
   0x1fff36ee:	2800    	cmp	r0, #0
   0x1fff36f0:	d950    	bls.n	0x1fff3794
   0x1fff36f2:	4620    	mov	r0, r4
   0x1fff36f4:	3080    	adds	r0, #128	@ 0x80
   0x1fff36f6:	9002    	str	r0, [sp, #8]
   0x1fff36f8:	2001    	movs	r0, #1
   0x1fff36fa:	40a8    	lsls	r0, r5
   0x1fff36fc:	4601    	mov	r1, r0
   0x1fff36fe:	4239    	tst	r1, r7
   0x1fff3700:	d042    	beq.n	0x1fff3788
   0x1fff3702:	07e9    	lsls	r1, r5, #31
   0x1fff3704:	d003    	beq.n	0x1fff370e
   0x1fff3706:	9900    	ldr	r1, [sp, #0]
   0x1fff3708:	2909    	cmp	r1, #9
   0x1fff370a:	d029    	beq.n	0x1fff3760
   0x1fff370c:	e034    	b.n	0x1fff3778
   0x1fff370e:	6a31    	ldr	r1, [r6, #32]
   0x1fff3710:	6809    	ldr	r1, [r1, #0]
   0x1fff3712:	05c9    	lsls	r1, r1, #23
   0x1fff3714:	d50c    	bpl.n	0x1fff3730
   0x1fff3716:	9802    	ldr	r0, [sp, #8]
   0x1fff3718:	6da3    	ldr	r3, [r4, #88]	@ 0x58
   0x1fff371a:	6801    	ldr	r1, [r0, #0]
   0x1fff371c:	2201    	movs	r2, #1
   0x1fff371e:	4620    	mov	r0, r4
   0x1fff3720:	4798    	blx	r3
   0x1fff3722:	6a30    	ldr	r0, [r6, #32]
   0x1fff3724:	6801    	ldr	r1, [r0, #0]
   0x1fff3726:	22ff    	movs	r2, #255	@ 0xff
   0x1fff3728:	3201    	adds	r2, #1
   0x1fff372a:	4311    	orrs	r1, r2
   0x1fff372c:	6001    	str	r1, [r0, #0]
   0x1fff372e:	e02b    	b.n	0x1fff3788
   0x1fff3730:	9900    	ldr	r1, [sp, #0]
   0x1fff3732:	2909    	cmp	r1, #9
   0x1fff3734:	d10b    	bne.n	0x1fff374e
   0x1fff3736:	69f1    	ldr	r1, [r6, #28]
   0x1fff3738:	4201    	tst	r1, r0
   0x1fff373a:	d008    	beq.n	0x1fff374e
   0x1fff373c:	00a8    	lsls	r0, r5, #2
   0x1fff373e:	1900    	adds	r0, r0, r4
   0x1fff3740:	2180    	movs	r1, #128	@ 0x80
   0x1fff3742:	5809    	ldr	r1, [r1, r0]
   0x1fff3744:	6d83    	ldr	r3, [r0, #88]	@ 0x58
   0x1fff3746:	2204    	movs	r2, #4
   0x1fff3748:	4620    	mov	r0, r4
   0x1fff374a:	4798    	blx	r3
   0x1fff374c:	e01c    	b.n	0x1fff3788
   0x1fff374e:	00a8    	lsls	r0, r5, #2
   0x1fff3750:	1900    	adds	r0, r0, r4
   0x1fff3752:	2180    	movs	r1, #128	@ 0x80
   0x1fff3754:	5809    	ldr	r1, [r1, r0]
   0x1fff3756:	6d83    	ldr	r3, [r0, #88]	@ 0x58
   0x1fff3758:	2202    	movs	r2, #2
   0x1fff375a:	4620    	mov	r0, r4
   0x1fff375c:	4798    	blx	r3
   0x1fff375e:	e013    	b.n	0x1fff3788
   0x1fff3760:	69f1    	ldr	r1, [r6, #28]
   0x1fff3762:	4201    	tst	r1, r0
   0x1fff3764:	d008    	beq.n	0x1fff3778
   0x1fff3766:	00a8    	lsls	r0, r5, #2
   0x1fff3768:	1900    	adds	r0, r0, r4
   0x1fff376a:	2180    	movs	r1, #128	@ 0x80
   0x1fff376c:	5809    	ldr	r1, [r1, r0]
   0x1fff376e:	6d83    	ldr	r3, [r0, #88]	@ 0x58
   0x1fff3770:	2205    	movs	r2, #5
   0x1fff3772:	4620    	mov	r0, r4
   0x1fff3774:	4798    	blx	r3
   0x1fff3776:	e007    	b.n	0x1fff3788
   0x1fff3778:	00a8    	lsls	r0, r5, #2
   0x1fff377a:	1900    	adds	r0, r0, r4
   0x1fff377c:	2180    	movs	r1, #128	@ 0x80
   0x1fff377e:	5809    	ldr	r1, [r1, r0]
   0x1fff3780:	6d83    	ldr	r3, [r0, #88]	@ 0x58
   0x1fff3782:	2203    	movs	r2, #3
   0x1fff3784:	4620    	mov	r0, r4
   0x1fff3786:	4798    	blx	r3
   0x1fff3788:	9801    	ldr	r0, [sp, #4]
   0x1fff378a:	1c6d    	adds	r5, r5, #1
   0x1fff378c:	7a40    	ldrb	r0, [r0, #9]
   0x1fff378e:	0040    	lsls	r0, r0, #1
   0x1fff3790:	42a8    	cmp	r0, r5
   0x1fff3792:	d8b1    	bhi.n	0x1fff36f8
   0x1fff3794:	0078    	lsls	r0, r7, #1
   0x1fff3796:	d504    	bpl.n	0x1fff37a2
   0x1fff3798:	6b61    	ldr	r1, [r4, #52]	@ 0x34
   0x1fff379a:	2900    	cmp	r1, #0
   0x1fff379c:	d001    	beq.n	0x1fff37a2
   0x1fff379e:	9804    	ldr	r0, [sp, #16]
   0x1fff37a0:	4788    	blx	r1
   0x1fff37a2:	6be2    	ldr	r2, [r4, #60]	@ 0x3c
   0x1fff37a4:	2a00    	cmp	r2, #0
   0x1fff37a6:	d100    	bne.n	0x1fff37aa
   0x1fff37a8:	e535    	b.n	0x1fff3216
   0x1fff37aa:	9800    	ldr	r0, [sp, #0]
   0x1fff37ac:	2800    	cmp	r0, #0
   0x1fff37ae:	d0fb    	beq.n	0x1fff37a8
   0x1fff37b0:	2809    	cmp	r0, #9
   0x1fff37b2:	d0f9    	beq.n	0x1fff37a8
   0x1fff37b4:	280a    	cmp	r0, #10
   0x1fff37b6:	d0f7    	beq.n	0x1fff37a8
   0x1fff37b8:	4601    	mov	r1, r0
   0x1fff37ba:	9804    	ldr	r0, [sp, #16]
   0x1fff37bc:	4790    	blx	r2
   0x1fff37be:	e52a    	b.n	0x1fff3216
   0x1fff37c0:	4601    	mov	r1, r0
   0x1fff37c2:	0700    	lsls	r0, r0, #28
   0x1fff37c4:	0ec0    	lsrs	r0, r0, #27
   0x1fff37c6:	0609    	lsls	r1, r1, #24
   0x1fff37c8:	d500    	bpl.n	0x1fff37cc
   0x1fff37ca:	1c40    	adds	r0, r0, #1
   0x1fff37cc:	4770    	bx	lr
   0x1fff37ce:	0000    	movs	r0, r0
   0x1fff37d0:	03ff    	lsls	r7, r7, #15
   0x1fff37d2:	0000    	movs	r0, r0
   0x1fff37d4:	03ff    	lsls	r7, r7, #15
   0x1fff37d6:	c000    	stmia	r0!, {}
   0x1fff37d8:	03ff    	lsls	r7, r7, #15
   0x1fff37da:	8000    	strh	r0, [r0, #0]
   0x1fff37dc:	0009    	movs	r1, r1
   0x1fff37de:	0004    	movs	r4, r0
   0x1fff37e0:	2e55    	cmp	r6, #85	@ 0x55
   0x1fff37e2:	1fff    	subs	r7, r7, #7
   0x1fff37e4:	b5f8    	push	{r3, r4, r5, r6, r7, lr}
   0x1fff37e6:	4604    	mov	r4, r0
   0x1fff37e8:	6961    	ldr	r1, [r4, #20]
   0x1fff37ea:	48ec    	ldr	r0, [pc, #944]	@ (0x1fff3b9c)
   0x1fff37ec:	460d    	mov	r5, r1
   0x1fff37ee:	35ff    	adds	r5, #255	@ 0xff
   0x1fff37f0:	3561    	adds	r5, #97	@ 0x61
   0x1fff37f2:	796b    	ldrb	r3, [r5, #5]
   0x1fff37f4:	896a    	ldrh	r2, [r5, #10]
   0x1fff37f6:	2602    	movs	r6, #2
   0x1fff37f8:	2701    	movs	r7, #1
   0x1fff37fa:	f7fe f80b	bl	0x1fff1814
   0x1fff37fe:	3607    	adds	r6, #7
   0x1fff3800:	7b4e    	ldrb	r6, [r1, #13]
   0x1fff3802:	3b05    	subs	r3, #5
   0x1fff3804:	4226    	tst	r6, r4
   0x1fff3806:	0031    	movs	r1, r6
   0x1fff3808:	7a20    	ldrb	r0, [r4, #8]
   0x1fff380a:	2806    	cmp	r0, #6
   0x1fff380c:	d108    	bne.n	0x1fff3820
   0x1fff380e:	6920    	ldr	r0, [r4, #16]
   0x1fff3810:	7880    	ldrb	r0, [r0, #2]
   0x1fff3812:	0740    	lsls	r0, r0, #29
   0x1fff3814:	d501    	bpl.n	0x1fff381a
   0x1fff3816:	7226    	strb	r6, [r4, #8]
   0x1fff3818:	e001    	b.n	0x1fff381e
   0x1fff381a:	2008    	movs	r0, #8
   0x1fff381c:	7220    	strb	r0, [r4, #8]
   0x1fff381e:	72a7    	strb	r7, [r4, #10]
   0x1fff3820:	7a20    	ldrb	r0, [r4, #8]
   0x1fff3822:	2803    	cmp	r0, #3
   0x1fff3824:	d001    	beq.n	0x1fff382a
   0x1fff3826:	2804    	cmp	r0, #4
   0x1fff3828:	d101    	bne.n	0x1fff382e
   0x1fff382a:	2005    	movs	r0, #5
   0x1fff382c:	7220    	strb	r0, [r4, #8]
   0x1fff382e:	7a60    	ldrb	r0, [r4, #9]
   0x1fff3830:	7020    	strb	r0, [r4, #0]
   0x1fff3832:	7a20    	ldrb	r0, [r4, #8]
   0x1fff3834:	7120    	strb	r0, [r4, #4]
   0x1fff3836:	2000    	movs	r0, #0
   0x1fff3838:	7160    	strb	r0, [r4, #5]
   0x1fff383a:	20ff    	movs	r0, #255	@ 0xff
   0x1fff383c:	301d    	adds	r0, #29
   0x1fff383e:	5044    	str	r4, [r0, r1]
   0x1fff3840:	2006    	movs	r0, #6
   0x1fff3842:	31ff    	adds	r1, #255	@ 0xff
   0x1fff3844:	3121    	adds	r1, #33	@ 0x21
   0x1fff3846:	8008    	strh	r0, [r1, #0]
   0x1fff3848:	e009    	b.n	0x1fff385e
   0x1fff384a:	7a20    	ldrb	r0, [r4, #8]
   0x1fff384c:	2804    	cmp	r0, #4
   0x1fff384e:	d008    	beq.n	0x1fff3862
   0x1fff3850:	20ff    	movs	r0, #255	@ 0xff
   0x1fff3852:	3408    	adds	r4, #8
   0x1fff3854:	301d    	adds	r0, #29
   0x1fff3856:	5044    	str	r4, [r0, r1]
   0x1fff3858:	31ff    	adds	r1, #255	@ 0xff
   0x1fff385a:	3121    	adds	r1, #33	@ 0x21
   0x1fff385c:	800f    	strh	r7, [r1, #0]
   0x1fff385e:	2000    	movs	r0, #0
   0x1fff3860:	bdf8    	pop	{r3, r4, r5, r6, r7, pc}
   0x1fff3862:	4620    	mov	r0, r4
   0x1fff3864:	f000 f989	bl	0x1fff3b7a
   0x1fff3868:	bdf8    	pop	{r3, r4, r5, r6, r7, pc}
   0x1fff386a:	7a20    	ldrb	r0, [r4, #8]
   0x1fff386c:	2800    	cmp	r0, #0
   0x1fff386e:	d1f8    	bne.n	0x1fff3862
   0x1fff3870:	7227    	strb	r7, [r4, #8]
   0x1fff3872:	e7f4    	b.n	0x1fff385e
   0x1fff3874:	7a20    	ldrb	r0, [r4, #8]
   0x1fff3876:	280a    	cmp	r0, #10
   0x1fff3878:	d1f3    	bne.n	0x1fff3862
   0x1fff387a:	7226    	strb	r6, [r4, #8]
   0x1fff387c:	2000    	movs	r0, #0
   0x1fff387e:	7260    	strb	r0, [r4, #9]
   0x1fff3880:	e7ed    	b.n	0x1fff385e
   0x1fff3882:	7a23    	ldrb	r3, [r4, #8]
   0x1fff3884:	1e9b    	subs	r3, r3, #2
   0x1fff3886:	f7fd ffc5	bl	0x1fff1814
   0x1fff388a:	0608    	lsls	r0, r1, #24
   0x1fff388c:	0506    	lsls	r6, r0, #20
   0x1fff388e:	0606    	lsls	r6, r0, #24
   0x1fff3890:	0505    	lsls	r5, r0, #20
   0x1fff3892:	0506    	lsls	r6, r0, #20
   0x1fff3894:	e7e5    	b.n	0x1fff3862
   0x1fff3896:	7226    	strb	r6, [r4, #8]
   0x1fff3898:	e7e1    	b.n	0x1fff385e
   0x1fff389a:	7a20    	ldrb	r0, [r4, #8]
   0x1fff389c:	2802    	cmp	r0, #2
   0x1fff389e:	d002    	beq.n	0x1fff38a6
   0x1fff38a0:	2805    	cmp	r0, #5
   0x1fff38a2:	d1de    	bne.n	0x1fff3862
   0x1fff38a4:	e001    	b.n	0x1fff38aa
   0x1fff38a6:	2a00    	cmp	r2, #0
   0x1fff38a8:	d0db    	beq.n	0x1fff3862
   0x1fff38aa:	6920    	ldr	r0, [r4, #16]
   0x1fff38ac:	7983    	ldrb	r3, [r0, #6]
   0x1fff38ae:	7946    	ldrb	r6, [r0, #5]
   0x1fff38b0:	0218    	lsls	r0, r3, #8
   0x1fff38b2:	4330    	orrs	r0, r6
   0x1fff38b4:	4290    	cmp	r0, r2
   0x1fff38b6:	d206    	bcs.n	0x1fff38c6
   0x1fff38b8:	200a    	movs	r0, #10
   0x1fff38ba:	7220    	strb	r0, [r4, #8]
   0x1fff38bc:	2008    	movs	r0, #8
   0x1fff38be:	7260    	strb	r0, [r4, #9]
   0x1fff38c0:	48b6    	ldr	r0, [pc, #728]	@ (0x1fff3b9c)
   0x1fff38c2:	1c40    	adds	r0, r0, #1
   0x1fff38c4:	bdf8    	pop	{r3, r4, r5, r6, r7, pc}
   0x1fff38c6:	2a00    	cmp	r2, #0
   0x1fff38c8:	d00e    	beq.n	0x1fff38e8
   0x1fff38ca:	2003    	movs	r0, #3
   0x1fff38cc:	7220    	strb	r0, [r4, #8]
   0x1fff38ce:	88e8    	ldrh	r0, [r5, #6]
   0x1fff38d0:	1c63    	adds	r3, r4, #1
   0x1fff38d2:	2200    	movs	r2, #0
   0x1fff38d4:	4621    	mov	r1, r4
   0x1fff38d6:	69a5    	ldr	r5, [r4, #24]
   0x1fff38d8:	310c    	adds	r1, #12
   0x1fff38da:	47a8    	blx	r5
   0x1fff38dc:	6960    	ldr	r0, [r4, #20]
   0x1fff38de:	68e1    	ldr	r1, [r4, #12]
   0x1fff38e0:	30ff    	adds	r0, #255	@ 0xff
   0x1fff38e2:	3001    	adds	r0, #1
   0x1fff38e4:	61c1    	str	r1, [r0, #28]
   0x1fff38e6:	e7ba    	b.n	0x1fff385e
   0x1fff38e8:	2006    	movs	r0, #6
   0x1fff38ea:	7220    	strb	r0, [r4, #8]
   0x1fff38ec:	4608    	mov	r0, r1
   0x1fff38ee:	f7fe fccd	bl	0x1fff228c
   0x1fff38f2:	e7b4    	b.n	0x1fff385e
   0x1fff38f4:	7a20    	ldrb	r0, [r4, #8]
   0x1fff38f6:	2802    	cmp	r0, #2
   0x1fff38f8:	d002    	beq.n	0x1fff3900
   0x1fff38fa:	2809    	cmp	r0, #9
   0x1fff38fc:	d1b1    	bne.n	0x1fff3862
   0x1fff38fe:	e001    	b.n	0x1fff3904
   0x1fff3900:	2009    	movs	r0, #9
   0x1fff3902:	7220    	strb	r0, [r4, #8]
   0x1fff3904:	88e9    	ldrh	r1, [r5, #6]
   0x1fff3906:	4620    	mov	r0, r4
   0x1fff3908:	f000 f901	bl	0x1fff3b0e
   0x1fff390c:	bdf8    	pop	{r3, r4, r5, r6, r7, pc}
   0x1fff390e:	7a02    	ldrb	r2, [r0, #8]
   0x1fff3910:	2100    	movs	r1, #0
   0x1fff3912:	2a00    	cmp	r2, #0
   0x1fff3914:	d002    	beq.n	0x1fff391c
   0x1fff3916:	72c1    	strb	r1, [r0, #11]
   0x1fff3918:	2202    	movs	r2, #2
   0x1fff391a:	7202    	strb	r2, [r0, #8]
   0x1fff391c:	7241    	strb	r1, [r0, #9]
   0x1fff391e:	7281    	strb	r1, [r0, #10]
   0x1fff3920:	4770    	bx	lr
   0x1fff3922:	b5f8    	push	{r3, r4, r5, r6, r7, lr}
   0x1fff3924:	4605    	mov	r5, r0
   0x1fff3926:	35ff    	adds	r5, #255	@ 0xff
   0x1fff3928:	4606    	mov	r6, r0
   0x1fff392a:	460c    	mov	r4, r1
   0x1fff392c:	3561    	adds	r5, #97	@ 0x61
   0x1fff392e:	7a28    	ldrb	r0, [r5, #8]
   0x1fff3930:	7ac9    	ldrb	r1, [r1, #11]
   0x1fff3932:	4f9a    	ldr	r7, [pc, #616]	@ (0x1fff3b9c)
   0x1fff3934:	4288    	cmp	r0, r1
   0x1fff3936:	d001    	beq.n	0x1fff393c
   0x1fff3938:	2a0e    	cmp	r2, #14
   0x1fff393a:	d16f    	bne.n	0x1fff3a1c
   0x1fff393c:	2a01    	cmp	r2, #1
   0x1fff393e:	d004    	beq.n	0x1fff394a
   0x1fff3940:	2a02    	cmp	r2, #2
   0x1fff3942:	d046    	beq.n	0x1fff39d2
   0x1fff3944:	2a0e    	cmp	r2, #14
   0x1fff3946:	d169    	bne.n	0x1fff3a1c
   0x1fff3948:	e065    	b.n	0x1fff3a16
   0x1fff394a:	7929    	ldrb	r1, [r5, #4]
   0x1fff394c:	0648    	lsls	r0, r1, #25
   0x1fff394e:	0f82    	lsrs	r2, r0, #30
   0x1fff3950:	2a01    	cmp	r2, #1
   0x1fff3952:	d103    	bne.n	0x1fff395c
   0x1fff3954:	06c9    	lsls	r1, r1, #27
   0x1fff3956:	0ec9    	lsrs	r1, r1, #27
   0x1fff3958:	2901    	cmp	r1, #1
   0x1fff395a:	d002    	beq.n	0x1fff3962
   0x1fff395c:	0f80    	lsrs	r0, r0, #30
   0x1fff395e:	d026    	beq.n	0x1fff39ae
   0x1fff3960:	e05c    	b.n	0x1fff3a1c
   0x1fff3962:	4620    	mov	r0, r4
   0x1fff3964:	f7ff ff3e	bl	0x1fff37e4
   0x1fff3968:	0007    	movs	r7, r0
   0x1fff396a:	d157    	bne.n	0x1fff3a1c
   0x1fff396c:	7968    	ldrb	r0, [r5, #5]
   0x1fff396e:	2803    	cmp	r0, #3
   0x1fff3970:	d00c    	beq.n	0x1fff398c
   0x1fff3972:	2805    	cmp	r0, #5
   0x1fff3974:	d00a    	beq.n	0x1fff398c
   0x1fff3976:	2802    	cmp	r0, #2
   0x1fff3978:	d008    	beq.n	0x1fff398c
   0x1fff397a:	2801    	cmp	r0, #1
   0x1fff397c:	d04e    	beq.n	0x1fff3a1c
   0x1fff397e:	4630    	mov	r0, r6
   0x1fff3980:	f7fe fc84	bl	0x1fff228c
   0x1fff3984:	7a20    	ldrb	r0, [r4, #8]
   0x1fff3986:	2801    	cmp	r0, #1
   0x1fff3988:	d00b    	beq.n	0x1fff39a2
   0x1fff398a:	e047    	b.n	0x1fff3a1c
   0x1fff398c:	6960    	ldr	r0, [r4, #20]
   0x1fff398e:	f7fe fc56	bl	0x1fff223e
   0x1fff3992:	7aa0    	ldrb	r0, [r4, #10]
   0x1fff3994:	2800    	cmp	r0, #0
   0x1fff3996:	d041    	beq.n	0x1fff3a1c
   0x1fff3998:	6a20    	ldr	r0, [r4, #32]
   0x1fff399a:	4780    	blx	r0
   0x1fff399c:	2000    	movs	r0, #0
   0x1fff399e:	72a0    	strb	r0, [r4, #10]
   0x1fff39a0:	e03c    	b.n	0x1fff3a1c
   0x1fff39a2:	6a61    	ldr	r1, [r4, #36]	@ 0x24
   0x1fff39a4:	2900    	cmp	r1, #0
   0x1fff39a6:	d039    	beq.n	0x1fff3a1c
   0x1fff39a8:	4630    	mov	r0, r6
   0x1fff39aa:	4788    	blx	r1
   0x1fff39ac:	e036    	b.n	0x1fff3a1c
   0x1fff39ae:	7968    	ldrb	r0, [r5, #5]
   0x1fff39b0:	2806    	cmp	r0, #6
   0x1fff39b2:	d133    	bne.n	0x1fff3a1c
   0x1fff39b4:	79e8    	ldrb	r0, [r5, #7]
   0x1fff39b6:	2821    	cmp	r0, #33	@ 0x21
   0x1fff39b8:	d130    	bne.n	0x1fff3a1c
   0x1fff39ba:	20ff    	movs	r0, #255	@ 0xff
   0x1fff39bc:	301d    	adds	r0, #29
   0x1fff39be:	6921    	ldr	r1, [r4, #16]
   0x1fff39c0:	5181    	str	r1, [r0, r6]
   0x1fff39c2:	2109    	movs	r1, #9
   0x1fff39c4:	1d00    	adds	r0, r0, #4
   0x1fff39c6:	5381    	strh	r1, [r0, r6]
   0x1fff39c8:	4630    	mov	r0, r6
   0x1fff39ca:	f7fe fc38	bl	0x1fff223e
   0x1fff39ce:	2700    	movs	r7, #0
   0x1fff39d0:	e024    	b.n	0x1fff3a1c
   0x1fff39d2:	7928    	ldrb	r0, [r5, #4]
   0x1fff39d4:	0641    	lsls	r1, r0, #25
   0x1fff39d6:	0f89    	lsrs	r1, r1, #30
   0x1fff39d8:	2901    	cmp	r1, #1
   0x1fff39da:	d11f    	bne.n	0x1fff3a1c
   0x1fff39dc:	06c0    	lsls	r0, r0, #27
   0x1fff39de:	0ec0    	lsrs	r0, r0, #27
   0x1fff39e0:	2801    	cmp	r0, #1
   0x1fff39e2:	d11b    	bne.n	0x1fff3a1c
   0x1fff39e4:	7968    	ldrb	r0, [r5, #5]
   0x1fff39e6:	2801    	cmp	r0, #1
   0x1fff39e8:	d118    	bne.n	0x1fff3a1c
   0x1fff39ea:	88e8    	ldrh	r0, [r5, #6]
   0x1fff39ec:	896a    	ldrh	r2, [r5, #10]
   0x1fff39ee:	1c63    	adds	r3, r4, #1
   0x1fff39f0:	4621    	mov	r1, r4
   0x1fff39f2:	69a5    	ldr	r5, [r4, #24]
   0x1fff39f4:	310c    	adds	r1, #12
   0x1fff39f6:	47a8    	blx	r5
   0x1fff39f8:	7260    	strb	r0, [r4, #9]
   0x1fff39fa:	2800    	cmp	r0, #0
   0x1fff39fc:	d004    	beq.n	0x1fff3a08
   0x1fff39fe:	200a    	movs	r0, #10
   0x1fff3a00:	4f66    	ldr	r7, [pc, #408]	@ (0x1fff3b9c)
   0x1fff3a02:	7220    	strb	r0, [r4, #8]
   0x1fff3a04:	1c7f    	adds	r7, r7, #1
   0x1fff3a06:	e000    	b.n	0x1fff3a0a
   0x1fff3a08:	2700    	movs	r7, #0
   0x1fff3a0a:	2f00    	cmp	r7, #0
   0x1fff3a0c:	d106    	bne.n	0x1fff3a1c
   0x1fff3a0e:	4630    	mov	r0, r6
   0x1fff3a10:	f7fe fc3c	bl	0x1fff228c
   0x1fff3a14:	e002    	b.n	0x1fff3a1c
   0x1fff3a16:	4620    	mov	r0, r4
   0x1fff3a18:	f7ff ff79	bl	0x1fff390e
   0x1fff3a1c:	4638    	mov	r0, r7
   0x1fff3a1e:	bdf8    	pop	{r3, r4, r5, r6, r7, pc}
   0x1fff3a20:	8900    	ldrh	r0, [r0, #8]
   0x1fff3a22:	302c    	adds	r0, #44	@ 0x2c
   0x1fff3a24:	0880    	lsrs	r0, r0, #2
   0x1fff3a26:	0080    	lsls	r0, r0, #2
   0x1fff3a28:	4770    	bx	lr
   0x1fff3a2a:	b5f7    	push	{r0, r1, r2, r4, r5, r6, r7, lr}
   0x1fff3a2c:	4607    	mov	r7, r0
   0x1fff3a2e:	460c    	mov	r4, r1
   0x1fff3a30:	680d    	ldr	r5, [r1, #0]
   0x1fff3a32:	68ce    	ldr	r6, [r1, #12]
   0x1fff3a34:	6860    	ldr	r0, [r4, #4]
   0x1fff3a36:	07a9    	lsls	r1, r5, #30
   0x1fff3a38:	d004    	beq.n	0x1fff3a44
   0x1fff3a3a:	2828    	cmp	r0, #40	@ 0x28
   0x1fff3a3c:	d202    	bcs.n	0x1fff3a44
   0x1fff3a3e:	4857    	ldr	r0, [pc, #348]	@ (0x1fff3b9c)
   0x1fff3a40:	3008    	adds	r0, #8
   0x1fff3a42:	bdfe    	pop	{r1, r2, r3, r4, r5, r6, r7, pc}
   0x1fff3a44:	4629    	mov	r1, r5
   0x1fff3a46:	3128    	adds	r1, #40	@ 0x28
   0x1fff3a48:	3828    	subs	r0, #40	@ 0x28
   0x1fff3a4a:	6021    	str	r1, [r4, #0]
   0x1fff3a4c:	e003    	b.n	0x1fff3a56
   0x1fff3a4e:	1c40    	adds	r0, r0, #1
   0x1fff3a50:	6020    	str	r0, [r4, #0]
   0x1fff3a52:	6860    	ldr	r0, [r4, #4]
   0x1fff3a54:	1e40    	subs	r0, r0, #1
   0x1fff3a56:	6060    	str	r0, [r4, #4]
   0x1fff3a58:	6820    	ldr	r0, [r4, #0]
   0x1fff3a5a:	0781    	lsls	r1, r0, #30
   0x1fff3a5c:	d1f7    	bne.n	0x1fff3a4e
   0x1fff3a5e:	2128    	movs	r1, #40	@ 0x28
   0x1fff3a60:	4628    	mov	r0, r5
   0x1fff3a62:	f000 fa60	bl	0x1fff3f26
   0x1fff3a66:	616f    	str	r7, [r5, #20]
   0x1fff3a68:	6820    	ldr	r0, [r4, #0]
   0x1fff3a6a:	60e8    	str	r0, [r5, #12]
   0x1fff3a6c:	8920    	ldrh	r0, [r4, #8]
   0x1fff3a6e:	6821    	ldr	r1, [r4, #0]
   0x1fff3a70:	1809    	adds	r1, r1, r0
   0x1fff3a72:	6021    	str	r1, [r4, #0]
   0x1fff3a74:	6861    	ldr	r1, [r4, #4]
   0x1fff3a76:	1a08    	subs	r0, r1, r0
   0x1fff3a78:	6060    	str	r0, [r4, #4]
   0x1fff3a7a:	6920    	ldr	r0, [r4, #16]
   0x1fff3a7c:	2800    	cmp	r0, #0
   0x1fff3a7e:	d011    	beq.n	0x1fff3aa4
   0x1fff3a80:	69a1    	ldr	r1, [r4, #24]
   0x1fff3a82:	2900    	cmp	r1, #0
   0x1fff3a84:	d00e    	beq.n	0x1fff3aa4
   0x1fff3a86:	6961    	ldr	r1, [r4, #20]
   0x1fff3a88:	2900    	cmp	r1, #0
   0x1fff3a8a:	d00b    	beq.n	0x1fff3aa4
   0x1fff3a8c:	61a8    	str	r0, [r5, #24]
   0x1fff3a8e:	6960    	ldr	r0, [r4, #20]
   0x1fff3a90:	61e8    	str	r0, [r5, #28]
   0x1fff3a92:	69a0    	ldr	r0, [r4, #24]
   0x1fff3a94:	6228    	str	r0, [r5, #32]
   0x1fff3a96:	69e0    	ldr	r0, [r4, #28]
   0x1fff3a98:	6268    	str	r0, [r5, #36]	@ 0x24
   0x1fff3a9a:	7871    	ldrb	r1, [r6, #1]
   0x1fff3a9c:	68e0    	ldr	r0, [r4, #12]
   0x1fff3a9e:	2904    	cmp	r1, #4
   0x1fff3aa0:	d108    	bne.n	0x1fff3ab4
   0x1fff3aa2:	e001    	b.n	0x1fff3aa8
   0x1fff3aa4:	483e    	ldr	r0, [pc, #248]	@ (0x1fff3ba0)
   0x1fff3aa6:	bdfe    	pop	{r1, r2, r3, r4, r5, r6, r7, pc}
   0x1fff3aa8:	7971    	ldrb	r1, [r6, #5]
   0x1fff3aaa:	29fe    	cmp	r1, #254	@ 0xfe
   0x1fff3aac:	d102    	bne.n	0x1fff3ab4
   0x1fff3aae:	79b1    	ldrb	r1, [r6, #6]
   0x1fff3ab0:	2901    	cmp	r1, #1
   0x1fff3ab2:	d002    	beq.n	0x1fff3aba
   0x1fff3ab4:	4839    	ldr	r0, [pc, #228]	@ (0x1fff3b9c)
   0x1fff3ab6:	1d80    	adds	r0, r0, #6
   0x1fff3ab8:	bdfe    	pop	{r1, r2, r3, r4, r5, r6, r7, pc}
   0x1fff3aba:	78b1    	ldrb	r1, [r6, #2]
   0x1fff3abc:	72e9    	strb	r1, [r5, #11]
   0x1fff3abe:	7831    	ldrb	r1, [r6, #0]
   0x1fff3ac0:	1808    	adds	r0, r1, r0
   0x1fff3ac2:	7841    	ldrb	r1, [r0, #1]
   0x1fff3ac4:	2921    	cmp	r1, #33	@ 0x21
   0x1fff3ac6:	d112    	bne.n	0x1fff3aee
   0x1fff3ac8:	7982    	ldrb	r2, [r0, #6]
   0x1fff3aca:	7943    	ldrb	r3, [r0, #5]
   0x1fff3acc:	0211    	lsls	r1, r2, #8
   0x1fff3ace:	8922    	ldrh	r2, [r4, #8]
   0x1fff3ad0:	4319    	orrs	r1, r3
   0x1fff3ad2:	4291    	cmp	r1, r2
   0x1fff3ad4:	d10b    	bne.n	0x1fff3aee
   0x1fff3ad6:	7881    	ldrb	r1, [r0, #2]
   0x1fff3ad8:	0709    	lsls	r1, r1, #28
   0x1fff3ada:	d502    	bpl.n	0x1fff3ae2
   0x1fff3adc:	69e1    	ldr	r1, [r4, #28]
   0x1fff3ade:	2900    	cmp	r1, #0
   0x1fff3ae0:	d005    	beq.n	0x1fff3aee
   0x1fff3ae2:	6128    	str	r0, [r5, #16]
   0x1fff3ae4:	6a21    	ldr	r1, [r4, #32]
   0x1fff3ae6:	462a    	mov	r2, r5
   0x1fff3ae8:	2900    	cmp	r1, #0
   0x1fff3aea:	d003    	beq.n	0x1fff3af4
   0x1fff3aec:	e003    	b.n	0x1fff3af6
   0x1fff3aee:	482b    	ldr	r0, [pc, #172]	@ (0x1fff3b9c)
   0x1fff3af0:	1d00    	adds	r0, r0, #4
   0x1fff3af2:	bdfe    	pop	{r1, r2, r3, r4, r5, r6, r7, pc}
   0x1fff3af4:	492b    	ldr	r1, [pc, #172]	@ (0x1fff3ba4)
   0x1fff3af6:	4638    	mov	r0, r7
   0x1fff3af8:	f7fe ffdd	bl	0x1fff2ab6
   0x1fff3afc:	9902    	ldr	r1, [sp, #8]
   0x1fff3afe:	2902    	cmp	r1, #2
   0x1fff3b00:	d000    	beq.n	0x1fff3b04
   0x1fff3b02:	2100    	movs	r1, #0
   0x1fff3b04:	7229    	strb	r1, [r5, #8]
   0x1fff3b06:	2100    	movs	r1, #0
   0x1fff3b08:	7269    	strb	r1, [r5, #9]
   0x1fff3b0a:	72a9    	strb	r1, [r5, #10]
   0x1fff3b0c:	bdfe    	pop	{r1, r2, r3, r4, r5, r6, r7, pc}
   0x1fff3b0e:	b5f8    	push	{r3, r4, r5, r6, r7, lr}
   0x1fff3b10:	4604    	mov	r4, r0
   0x1fff3b12:	4608    	mov	r0, r1
   0x1fff3b14:	6921    	ldr	r1, [r4, #16]
   0x1fff3b16:	4f21    	ldr	r7, [pc, #132]	@ (0x1fff3b9c)
   0x1fff3b18:	798b    	ldrb	r3, [r1, #6]
   0x1fff3b1a:	794e    	ldrb	r6, [r1, #5]
   0x1fff3b1c:	0219    	lsls	r1, r3, #8
   0x1fff3b1e:	4331    	orrs	r1, r6
   0x1fff3b20:	260a    	movs	r6, #10
   0x1fff3b22:	1c7f    	adds	r7, r7, #1
   0x1fff3b24:	6965    	ldr	r5, [r4, #20]
   0x1fff3b26:	4291    	cmp	r1, r2
   0x1fff3b28:	d202    	bcs.n	0x1fff3b30
   0x1fff3b2a:	7226    	strb	r6, [r4, #8]
   0x1fff3b2c:	2008    	movs	r0, #8
   0x1fff3b2e:	e00a    	b.n	0x1fff3b46
   0x1fff3b30:	68e1    	ldr	r1, [r4, #12]
   0x1fff3b32:	9100    	str	r1, [sp, #0]
   0x1fff3b34:	69e3    	ldr	r3, [r4, #28]
   0x1fff3b36:	4669    	mov	r1, sp
   0x1fff3b38:	4798    	blx	r3
   0x1fff3b3a:	2202    	movs	r2, #2
   0x1fff3b3c:	2800    	cmp	r0, #0
   0x1fff3b3e:	d005    	beq.n	0x1fff3b4c
   0x1fff3b40:	280f    	cmp	r0, #15
   0x1fff3b42:	dc08    	bgt.n	0x1fff3b56
   0x1fff3b44:	7226    	strb	r6, [r4, #8]
   0x1fff3b46:	7260    	strb	r0, [r4, #9]
   0x1fff3b48:	4638    	mov	r0, r7
   0x1fff3b4a:	bdf8    	pop	{r3, r4, r5, r6, r7, pc}
   0x1fff3b4c:	2000    	movs	r0, #0
   0x1fff3b4e:	35ff    	adds	r5, #255	@ 0xff
   0x1fff3b50:	3521    	adds	r5, #33	@ 0x21
   0x1fff3b52:	8028    	strh	r0, [r5, #0]
   0x1fff3b54:	e00e    	b.n	0x1fff3b74
   0x1fff3b56:	21ff    	movs	r1, #255	@ 0xff
   0x1fff3b58:	311d    	adds	r1, #29
   0x1fff3b5a:	9b00    	ldr	r3, [sp, #0]
   0x1fff3b5c:	514b    	str	r3, [r1, r5]
   0x1fff3b5e:	35ff    	adds	r5, #255	@ 0xff
   0x1fff3b60:	b280    	uxth	r0, r0
   0x1fff3b62:	3521    	adds	r5, #33	@ 0x21
   0x1fff3b64:	8028    	strh	r0, [r5, #0]
   0x1fff3b66:	6921    	ldr	r1, [r4, #16]
   0x1fff3b68:	798b    	ldrb	r3, [r1, #6]
   0x1fff3b6a:	794d    	ldrb	r5, [r1, #5]
   0x1fff3b6c:	0219    	lsls	r1, r3, #8
   0x1fff3b6e:	4329    	orrs	r1, r5
   0x1fff3b70:	4288    	cmp	r0, r1
   0x1fff3b72:	d200    	bcs.n	0x1fff3b76
   0x1fff3b74:	7222    	strb	r2, [r4, #8]
   0x1fff3b76:	2000    	movs	r0, #0
   0x1fff3b78:	bdf8    	pop	{r3, r4, r5, r6, r7, pc}
   0x1fff3b7a:	7a01    	ldrb	r1, [r0, #8]
   0x1fff3b7c:	2900    	cmp	r1, #0
   0x1fff3b7e:	d005    	beq.n	0x1fff3b8c
   0x1fff3b80:	2901    	cmp	r1, #1
   0x1fff3b82:	d006    	beq.n	0x1fff3b92
   0x1fff3b84:	2908    	cmp	r1, #8
   0x1fff3b86:	d006    	beq.n	0x1fff3b96
   0x1fff3b88:	210a    	movs	r1, #10
   0x1fff3b8a:	7201    	strb	r1, [r0, #8]
   0x1fff3b8c:	4803    	ldr	r0, [pc, #12]	@ (0x1fff3b9c)
   0x1fff3b8e:	1c40    	adds	r0, r0, #1
   0x1fff3b90:	4770    	bx	lr
   0x1fff3b92:	2100    	movs	r1, #0
   0x1fff3b94:	e7f9    	b.n	0x1fff3b8a
   0x1fff3b96:	2000    	movs	r0, #0
   0x1fff3b98:	4770    	bx	lr
   0x1fff3b9a:	0000    	movs	r0, r0
   0x1fff3b9c:	0002    	movs	r2, r0
   0x1fff3b9e:	0004    	movs	r4, r0
   0x1fff3ba0:	0003    	movs	r3, r0
   0x1fff3ba2:	0001    	movs	r1, r0
   0x1fff3ba4:	3923    	subs	r1, #35	@ 0x23
   0x1fff3ba6:	1fff    	subs	r7, r7, #7
   0x1fff3ba8:	b510    	push	{r4, lr}
   0x1fff3baa:	4614    	mov	r4, r2
   0x1fff3bac:	22a1    	movs	r2, #161	@ 0xa1
   0x1fff3bae:	7102    	strb	r2, [r0, #4]
   0x1fff3bb0:	2200    	movs	r2, #0
   0x1fff3bb2:	7141    	strb	r1, [r0, #5]
   0x1fff3bb4:	7182    	strb	r2, [r0, #6]
   0x1fff3bb6:	71c2    	strb	r2, [r0, #7]
   0x1fff3bb8:	7202    	strb	r2, [r0, #8]
   0x1fff3bba:	7242    	strb	r2, [r0, #9]
   0x1fff3bbc:	2308    	movs	r3, #8
   0x1fff3bbe:	7282    	strb	r2, [r0, #10]
   0x1fff3bc0:	72c2    	strb	r2, [r0, #11]
   0x1fff3bc2:	2900    	cmp	r1, #0
   0x1fff3bc4:	d004    	beq.n	0x1fff3bd0
   0x1fff3bc6:	2901    	cmp	r1, #1
   0x1fff3bc8:	d006    	beq.n	0x1fff3bd8
   0x1fff3bca:	2920    	cmp	r1, #32
   0x1fff3bcc:	d111    	bne.n	0x1fff3bf2
   0x1fff3bce:	e00b    	b.n	0x1fff3be8
   0x1fff3bd0:	2c00    	cmp	r4, #0
   0x1fff3bd2:	d001    	beq.n	0x1fff3bd8
   0x1fff3bd4:	2101    	movs	r1, #1
   0x1fff3bd6:	7181    	strb	r1, [r0, #6]
   0x1fff3bd8:	6804    	ldr	r4, [r0, #0]
   0x1fff3bda:	7f01    	ldrb	r1, [r0, #28]
   0x1fff3bdc:	1d02    	adds	r2, r0, #4
   0x1fff3bde:	4620    	mov	r0, r4
   0x1fff3be0:	f7ff fbd1	bl	0x1fff3386
   0x1fff3be4:	2000    	movs	r0, #0
   0x1fff3be6:	bd10    	pop	{r4, pc}
   0x1fff3be8:	2102    	movs	r1, #2
   0x1fff3bea:	7281    	strb	r1, [r0, #10]
   0x1fff3bec:	7304    	strb	r4, [r0, #12]
   0x1fff3bee:	0a21    	lsrs	r1, r4, #8
   0x1fff3bf0:	7341    	strb	r1, [r0, #13]
   0x1fff3bf2:	48b0    	ldr	r0, [pc, #704]	@ (0x1fff3eb4)
   0x1fff3bf4:	bd10    	pop	{r4, pc}
   0x1fff3bf6:	b570    	push	{r4, r5, r6, lr}
   0x1fff3bf8:	460e    	mov	r6, r1
   0x1fff3bfa:	4611    	mov	r1, r2
   0x1fff3bfc:	461a    	mov	r2, r3
   0x1fff3bfe:	4604    	mov	r4, r0
   0x1fff3c00:	7873    	ldrb	r3, [r6, #1]
   0x1fff3c02:	48ad    	ldr	r0, [pc, #692]	@ (0x1fff3eb8)
   0x1fff3c04:	2b01    	cmp	r3, #1
   0x1fff3c06:	d008    	beq.n	0x1fff3c1a
   0x1fff3c08:	2b03    	cmp	r3, #3
   0x1fff3c0a:	d00c    	beq.n	0x1fff3c26
   0x1fff3c0c:	2b21    	cmp	r3, #33	@ 0x21
   0x1fff3c0e:	d109    	bne.n	0x1fff3c24
   0x1fff3c10:	3410    	adds	r4, #16
   0x1fff3c12:	2007    	movs	r0, #7
   0x1fff3c14:	600c    	str	r4, [r1, #0]
   0x1fff3c16:	8010    	strh	r0, [r2, #0]
   0x1fff3c18:	e016    	b.n	0x1fff3c48
   0x1fff3c1a:	6a65    	ldr	r5, [r4, #36]	@ 0x24
   0x1fff3c1c:	4620    	mov	r0, r4
   0x1fff3c1e:	2d00    	cmp	r5, #0
   0x1fff3c20:	d001    	beq.n	0x1fff3c26
   0x1fff3c22:	47a8    	blx	r5
   0x1fff3c24:	bd70    	pop	{r4, r5, r6, pc}
   0x1fff3c26:	6ae5    	ldr	r5, [r4, #44]	@ 0x2c
   0x1fff3c28:	2d00    	cmp	r5, #0
   0x1fff3c2a:	d009    	beq.n	0x1fff3c40
   0x1fff3c2c:	78f0    	ldrb	r0, [r6, #3]
   0x1fff3c2e:	78b3    	ldrb	r3, [r6, #2]
   0x1fff3c30:	0200    	lsls	r0, r0, #8
   0x1fff3c32:	4318    	orrs	r0, r3
   0x1fff3c34:	4613    	mov	r3, r2
   0x1fff3c36:	460a    	mov	r2, r1
   0x1fff3c38:	4601    	mov	r1, r0
   0x1fff3c3a:	4620    	mov	r0, r4
   0x1fff3c3c:	47a8    	blx	r5
   0x1fff3c3e:	bd70    	pop	{r4, r5, r6, pc}
   0x1fff3c40:	6808    	ldr	r0, [r1, #0]
   0x1fff3c42:	2140    	movs	r1, #64	@ 0x40
   0x1fff3c44:	f000 f96f	bl	0x1fff3f26
   0x1fff3c48:	2000    	movs	r0, #0
   0x1fff3c4a:	bd70    	pop	{r4, r5, r6, pc}
   0x1fff3c4c:	b4f0    	push	{r4, r5, r6, r7}
   0x1fff3c4e:	4604    	mov	r4, r0
   0x1fff3c50:	784d    	ldrb	r5, [r1, #1]
   0x1fff3c52:	2000    	movs	r0, #0
   0x1fff3c54:	2d20    	cmp	r5, #32
   0x1fff3c56:	d034    	beq.n	0x1fff3cc2
   0x1fff3c58:	dc06    	bgt.n	0x1fff3c68
   0x1fff3c5a:	2d00    	cmp	r5, #0
   0x1fff3c5c:	d00b    	beq.n	0x1fff3c76
   0x1fff3c5e:	2d02    	cmp	r5, #2
   0x1fff3c60:	d014    	beq.n	0x1fff3c8c
   0x1fff3c62:	2d04    	cmp	r5, #4
   0x1fff3c64:	d104    	bne.n	0x1fff3c70
   0x1fff3c66:	e01f    	b.n	0x1fff3ca8
   0x1fff3c68:	2d22    	cmp	r5, #34	@ 0x22
   0x1fff3c6a:	d024    	beq.n	0x1fff3cb6
   0x1fff3c6c:	2d23    	cmp	r5, #35	@ 0x23
   0x1fff3c6e:	d026    	beq.n	0x1fff3cbe
   0x1fff3c70:	4891    	ldr	r0, [pc, #580]	@ (0x1fff3eb8)
   0x1fff3c72:	bcf0    	pop	{r4, r5, r6, r7}
   0x1fff3c74:	4770    	bx	lr
   0x1fff3c76:	2b00    	cmp	r3, #0
   0x1fff3c78:	d0fb    	beq.n	0x1fff3c72
   0x1fff3c7a:	6a25    	ldr	r5, [r4, #32]
   0x1fff3c7c:	2d00    	cmp	r5, #0
   0x1fff3c7e:	d0f8    	beq.n	0x1fff3c72
   0x1fff3c80:	6811    	ldr	r1, [r2, #0]
   0x1fff3c82:	4620    	mov	r0, r4
   0x1fff3c84:	46ac    	mov	r12, r5
   0x1fff3c86:	bcf0    	pop	{r4, r5, r6, r7}
   0x1fff3c88:	461a    	mov	r2, r3
   0x1fff3c8a:	4760    	bx	r12
   0x1fff3c8c:	2b00    	cmp	r3, #0
   0x1fff3c8e:	d0f0    	beq.n	0x1fff3c72
   0x1fff3c90:	6aa5    	ldr	r5, [r4, #40]	@ 0x28
   0x1fff3c92:	2d00    	cmp	r5, #0
   0x1fff3c94:	d0ed    	beq.n	0x1fff3c72
   0x1fff3c96:	78c8    	ldrb	r0, [r1, #3]
   0x1fff3c98:	788e    	ldrb	r6, [r1, #2]
   0x1fff3c9a:	0201    	lsls	r1, r0, #8
   0x1fff3c9c:	6812    	ldr	r2, [r2, #0]
   0x1fff3c9e:	4331    	orrs	r1, r6
   0x1fff3ca0:	4620    	mov	r0, r4
   0x1fff3ca2:	46ac    	mov	r12, r5
   0x1fff3ca4:	bcf0    	pop	{r4, r5, r6, r7}
   0x1fff3ca6:	4760    	bx	r12
   0x1fff3ca8:	6b22    	ldr	r2, [r4, #48]	@ 0x30
   0x1fff3caa:	e005    	b.n	0x1fff3cb8
   0x1fff3cac:	78c8    	ldrb	r0, [r1, #3]
   0x1fff3cae:	788b    	ldrb	r3, [r1, #2]
   0x1fff3cb0:	0201    	lsls	r1, r0, #8
   0x1fff3cb2:	4319    	orrs	r1, r3
   0x1fff3cb4:	e00c    	b.n	0x1fff3cd0
   0x1fff3cb6:	6b62    	ldr	r2, [r4, #52]	@ 0x34
   0x1fff3cb8:	2a00    	cmp	r2, #0
   0x1fff3cba:	d1f7    	bne.n	0x1fff3cac
   0x1fff3cbc:	e7d9    	b.n	0x1fff3c72
   0x1fff3cbe:	6ba2    	ldr	r2, [r4, #56]	@ 0x38
   0x1fff3cc0:	e7fa    	b.n	0x1fff3cb8
   0x1fff3cc2:	4621    	mov	r1, r4
   0x1fff3cc4:	3110    	adds	r1, #16
   0x1fff3cc6:	2b00    	cmp	r3, #0
   0x1fff3cc8:	d005    	beq.n	0x1fff3cd6
   0x1fff3cca:	6be2    	ldr	r2, [r4, #60]	@ 0x3c
   0x1fff3ccc:	2a00    	cmp	r2, #0
   0x1fff3cce:	d0d0    	beq.n	0x1fff3c72
   0x1fff3cd0:	4620    	mov	r0, r4
   0x1fff3cd2:	bcf0    	pop	{r4, r5, r6, r7}
   0x1fff3cd4:	4710    	bx	r2
   0x1fff3cd6:	6011    	str	r1, [r2, #0]
   0x1fff3cd8:	e7cb    	b.n	0x1fff3c72
   0x1fff3cda:	b5f8    	push	{r3, r4, r5, r6, r7, lr}
   0x1fff3cdc:	4605    	mov	r5, r0
   0x1fff3cde:	1deb    	adds	r3, r5, #7
   0x1fff3ce0:	4616    	mov	r6, r2
   0x1fff3ce2:	33f9    	adds	r3, #249	@ 0xf9
   0x1fff3ce4:	461a    	mov	r2, r3
   0x1fff3ce6:	4608    	mov	r0, r1
   0x1fff3ce8:	321c    	adds	r2, #28
   0x1fff3cea:	4611    	mov	r1, r2
   0x1fff3cec:	3148    	adds	r1, #72	@ 0x48
   0x1fff3cee:	9500    	str	r5, [sp, #0]
   0x1fff3cf0:	4c71    	ldr	r4, [pc, #452]	@ (0x1fff3eb8)
   0x1fff3cf2:	1f0d    	subs	r5, r1, #4
   0x1fff3cf4:	2e01    	cmp	r6, #1
   0x1fff3cf6:	d002    	beq.n	0x1fff3cfe
   0x1fff3cf8:	2e02    	cmp	r6, #2
   0x1fff3cfa:	d148    	bne.n	0x1fff3d8e
   0x1fff3cfc:	e02b    	b.n	0x1fff3d56
   0x1fff3cfe:	792e    	ldrb	r6, [r5, #4]
   0x1fff3d00:	0677    	lsls	r7, r6, #25
   0x1fff3d02:	0fbf    	lsrs	r7, r7, #30
   0x1fff3d04:	2f01    	cmp	r7, #1
   0x1fff3d06:	d142    	bne.n	0x1fff3d8e
   0x1fff3d08:	06f6    	lsls	r6, r6, #27
   0x1fff3d0a:	0ef6    	lsrs	r6, r6, #27
   0x1fff3d0c:	2e01    	cmp	r6, #1
   0x1fff3d0e:	d13e    	bne.n	0x1fff3d8e
   0x1fff3d10:	7a2e    	ldrb	r6, [r5, #8]
   0x1fff3d12:	7e07    	ldrb	r7, [r0, #24]
   0x1fff3d14:	42be    	cmp	r6, r7
   0x1fff3d16:	d002    	beq.n	0x1fff3d1e
   0x1fff3d18:	7e47    	ldrb	r7, [r0, #25]
   0x1fff3d1a:	42be    	cmp	r6, r7
   0x1fff3d1c:	d137    	bne.n	0x1fff3d8e
   0x1fff3d1e:	9c00    	ldr	r4, [sp, #0]
   0x1fff3d20:	34ff    	adds	r4, #255	@ 0xff
   0x1fff3d22:	3425    	adds	r4, #37	@ 0x25
   0x1fff3d24:	61dc    	str	r4, [r3, #28]
   0x1fff3d26:	792b    	ldrb	r3, [r5, #4]
   0x1fff3d28:	09db    	lsrs	r3, r3, #7
   0x1fff3d2a:	d007    	beq.n	0x1fff3d3c
   0x1fff3d2c:	9b00    	ldr	r3, [sp, #0]
   0x1fff3d2e:	6c04    	ldr	r4, [r0, #64]	@ 0x40
   0x1fff3d30:	33ff    	adds	r3, #255	@ 0xff
   0x1fff3d32:	3321    	adds	r3, #33	@ 0x21
   0x1fff3d34:	47a0    	blx	r4
   0x1fff3d36:	0004    	movs	r4, r0
   0x1fff3d38:	d009    	beq.n	0x1fff3d4e
   0x1fff3d3a:	e028    	b.n	0x1fff3d8e
   0x1fff3d3c:	6c44    	ldr	r4, [r0, #68]	@ 0x44
   0x1fff3d3e:	2300    	movs	r3, #0
   0x1fff3d40:	47a0    	blx	r4
   0x1fff3d42:	0004    	movs	r4, r0
   0x1fff3d44:	d123    	bne.n	0x1fff3d8e
   0x1fff3d46:	8968    	ldrh	r0, [r5, #10]
   0x1fff3d48:	2800    	cmp	r0, #0
   0x1fff3d4a:	d01d    	beq.n	0x1fff3d88
   0x1fff3d4c:	e01f    	b.n	0x1fff3d8e
   0x1fff3d4e:	9800    	ldr	r0, [sp, #0]
   0x1fff3d50:	f7fe fa75	bl	0x1fff223e
   0x1fff3d54:	e01b    	b.n	0x1fff3d8e
   0x1fff3d56:	792e    	ldrb	r6, [r5, #4]
   0x1fff3d58:	0677    	lsls	r7, r6, #25
   0x1fff3d5a:	0fbf    	lsrs	r7, r7, #30
   0x1fff3d5c:	2f01    	cmp	r7, #1
   0x1fff3d5e:	d116    	bne.n	0x1fff3d8e
   0x1fff3d60:	06f6    	lsls	r6, r6, #27
   0x1fff3d62:	0ef6    	lsrs	r6, r6, #27
   0x1fff3d64:	2e01    	cmp	r6, #1
   0x1fff3d66:	d112    	bne.n	0x1fff3d8e
   0x1fff3d68:	7a2e    	ldrb	r6, [r5, #8]
   0x1fff3d6a:	7e07    	ldrb	r7, [r0, #24]
   0x1fff3d6c:	42be    	cmp	r6, r7
   0x1fff3d6e:	d002    	beq.n	0x1fff3d76
   0x1fff3d70:	7e47    	ldrb	r7, [r0, #25]
   0x1fff3d72:	42be    	cmp	r6, r7
   0x1fff3d74:	d10b    	bne.n	0x1fff3d8e
   0x1fff3d76:	896e    	ldrh	r6, [r5, #10]
   0x1fff3d78:	69dc    	ldr	r4, [r3, #28]
   0x1fff3d7a:	1ba4    	subs	r4, r4, r6
   0x1fff3d7c:	61dc    	str	r4, [r3, #28]
   0x1fff3d7e:	6c44    	ldr	r4, [r0, #68]	@ 0x44
   0x1fff3d80:	896b    	ldrh	r3, [r5, #10]
   0x1fff3d82:	47a0    	blx	r4
   0x1fff3d84:	0004    	movs	r4, r0
   0x1fff3d86:	d102    	bne.n	0x1fff3d8e
   0x1fff3d88:	9800    	ldr	r0, [sp, #0]
   0x1fff3d8a:	f7fe fa7f	bl	0x1fff228c
   0x1fff3d8e:	4620    	mov	r0, r4
   0x1fff3d90:	bdf8    	pop	{r3, r4, r5, r6, r7, pc}
   0x1fff3d92:	204c    	movs	r0, #76	@ 0x4c
   0x1fff3d94:	4770    	bx	lr
   0x1fff3d96:	b5f7    	push	{r0, r1, r2, r4, r5, r6, r7, lr}
   0x1fff3d98:	460d    	mov	r5, r1
   0x1fff3d9a:	680c    	ldr	r4, [r1, #0]
   0x1fff3d9c:	2600    	movs	r6, #0
   0x1fff3d9e:	688f    	ldr	r7, [r1, #8]
   0x1fff3da0:	6868    	ldr	r0, [r5, #4]
   0x1fff3da2:	07a1    	lsls	r1, r4, #30
   0x1fff3da4:	d004    	beq.n	0x1fff3db0
   0x1fff3da6:	2848    	cmp	r0, #72	@ 0x48
   0x1fff3da8:	d202    	bcs.n	0x1fff3db0
   0x1fff3daa:	4843    	ldr	r0, [pc, #268]	@ (0x1fff3eb8)
   0x1fff3dac:	3008    	adds	r0, #8
   0x1fff3dae:	bdfe    	pop	{r1, r2, r3, r4, r5, r6, r7, pc}
   0x1fff3db0:	4621    	mov	r1, r4
   0x1fff3db2:	314b    	adds	r1, #75	@ 0x4b
   0x1fff3db4:	0889    	lsrs	r1, r1, #2
   0x1fff3db6:	3848    	subs	r0, #72	@ 0x48
   0x1fff3db8:	0089    	lsls	r1, r1, #2
   0x1fff3dba:	0880    	lsrs	r0, r0, #2
   0x1fff3dbc:	6029    	str	r1, [r5, #0]
   0x1fff3dbe:	0080    	lsls	r0, r0, #2
   0x1fff3dc0:	6068    	str	r0, [r5, #4]
   0x1fff3dc2:	2148    	movs	r1, #72	@ 0x48
   0x1fff3dc4:	4620    	mov	r0, r4
   0x1fff3dc6:	f000 f8ae	bl	0x1fff3f26
   0x1fff3dca:	9800    	ldr	r0, [sp, #0]
   0x1fff3dcc:	6020    	str	r0, [r4, #0]
   0x1fff3dce:	483b    	ldr	r0, [pc, #236]	@ (0x1fff3ebc)
   0x1fff3dd0:	6420    	str	r0, [r4, #64]	@ 0x40
   0x1fff3dd2:	483b    	ldr	r0, [pc, #236]	@ (0x1fff3ec0)
   0x1fff3dd4:	6460    	str	r0, [r4, #68]	@ 0x44
   0x1fff3dd6:	6a28    	ldr	r0, [r5, #32]
   0x1fff3dd8:	6220    	str	r0, [r4, #32]
   0x1fff3dda:	6a68    	ldr	r0, [r5, #36]	@ 0x24
   0x1fff3ddc:	6260    	str	r0, [r4, #36]	@ 0x24
   0x1fff3dde:	6aa8    	ldr	r0, [r5, #40]	@ 0x28
   0x1fff3de0:	62a0    	str	r0, [r4, #40]	@ 0x28
   0x1fff3de2:	6ae8    	ldr	r0, [r5, #44]	@ 0x2c
   0x1fff3de4:	62e0    	str	r0, [r4, #44]	@ 0x2c
   0x1fff3de6:	6b28    	ldr	r0, [r5, #48]	@ 0x30
   0x1fff3de8:	6320    	str	r0, [r4, #48]	@ 0x30
   0x1fff3dea:	6b68    	ldr	r0, [r5, #52]	@ 0x34
   0x1fff3dec:	6360    	str	r0, [r4, #52]	@ 0x34
   0x1fff3dee:	6ba8    	ldr	r0, [r5, #56]	@ 0x38
   0x1fff3df0:	63a0    	str	r0, [r4, #56]	@ 0x38
   0x1fff3df2:	6be8    	ldr	r0, [r5, #60]	@ 0x3c
   0x1fff3df4:	63e0    	str	r0, [r4, #60]	@ 0x3c
   0x1fff3df6:	4a30    	ldr	r2, [pc, #192]	@ (0x1fff3eb8)
   0x1fff3df8:	7878    	ldrb	r0, [r7, #1]
   0x1fff3dfa:	1d92    	adds	r2, r2, #6
   0x1fff3dfc:	2804    	cmp	r0, #4
   0x1fff3dfe:	d128    	bne.n	0x1fff3e52
   0x1fff3e00:	7978    	ldrb	r0, [r7, #5]
   0x1fff3e02:	2802    	cmp	r0, #2
   0x1fff3e04:	d125    	bne.n	0x1fff3e52
   0x1fff3e06:	7938    	ldrb	r0, [r7, #4]
   0x1fff3e08:	2802    	cmp	r0, #2
   0x1fff3e0a:	d222    	bcs.n	0x1fff3e52
   0x1fff3e0c:	78b8    	ldrb	r0, [r7, #2]
   0x1fff3e0e:	7620    	strb	r0, [r4, #24]
   0x1fff3e10:	7938    	ldrb	r0, [r7, #4]
   0x1fff3e12:	2801    	cmp	r0, #1
   0x1fff3e14:	d10c    	bne.n	0x1fff3e30
   0x1fff3e16:	7838    	ldrb	r0, [r7, #0]
   0x1fff3e18:	19c3    	adds	r3, r0, r7
   0x1fff3e1a:	7819    	ldrb	r1, [r3, #0]
   0x1fff3e1c:	4618    	mov	r0, r3
   0x1fff3e1e:	180b    	adds	r3, r1, r0
   0x1fff3e20:	7841    	ldrb	r1, [r0, #1]
   0x1fff3e22:	2905    	cmp	r1, #5
   0x1fff3e24:	d009    	beq.n	0x1fff3e3a
   0x1fff3e26:	2904    	cmp	r1, #4
   0x1fff3e28:	d1f7    	bne.n	0x1fff3e1a
   0x1fff3e2a:	7f20    	ldrb	r0, [r4, #28]
   0x1fff3e2c:	2800    	cmp	r0, #0
   0x1fff3e2e:	d033    	beq.n	0x1fff3e98
   0x1fff3e30:	68e9    	ldr	r1, [r5, #12]
   0x1fff3e32:	7848    	ldrb	r0, [r1, #1]
   0x1fff3e34:	2804    	cmp	r0, #4
   0x1fff3e36:	d006    	beq.n	0x1fff3e46
   0x1fff3e38:	e00b    	b.n	0x1fff3e52
   0x1fff3e3a:	78c1    	ldrb	r1, [r0, #3]
   0x1fff3e3c:	2903    	cmp	r1, #3
   0x1fff3e3e:	d1ec    	bne.n	0x1fff3e1a
   0x1fff3e40:	7880    	ldrb	r0, [r0, #2]
   0x1fff3e42:	7720    	strb	r0, [r4, #28]
   0x1fff3e44:	e7f1    	b.n	0x1fff3e2a
   0x1fff3e46:	7948    	ldrb	r0, [r1, #5]
   0x1fff3e48:	280a    	cmp	r0, #10
   0x1fff3e4a:	d102    	bne.n	0x1fff3e52
   0x1fff3e4c:	7988    	ldrb	r0, [r1, #6]
   0x1fff3e4e:	2800    	cmp	r0, #0
   0x1fff3e50:	d001    	beq.n	0x1fff3e56
   0x1fff3e52:	4610    	mov	r0, r2
   0x1fff3e54:	bdfe    	pop	{r1, r2, r3, r4, r5, r6, r7, pc}
   0x1fff3e56:	7888    	ldrb	r0, [r1, #2]
   0x1fff3e58:	7660    	strb	r0, [r4, #25]
   0x1fff3e5a:	7808    	ldrb	r0, [r1, #0]
   0x1fff3e5c:	1847    	adds	r7, r0, r1
   0x1fff3e5e:	2200    	movs	r2, #0
   0x1fff3e60:	e00f    	b.n	0x1fff3e82
   0x1fff3e62:	783b    	ldrb	r3, [r7, #0]
   0x1fff3e64:	4638    	mov	r0, r7
   0x1fff3e66:	181f    	adds	r7, r3, r0
   0x1fff3e68:	7843    	ldrb	r3, [r0, #1]
   0x1fff3e6a:	2b05    	cmp	r3, #5
   0x1fff3e6c:	d108    	bne.n	0x1fff3e80
   0x1fff3e6e:	78c3    	ldrb	r3, [r0, #3]
   0x1fff3e70:	2b02    	cmp	r3, #2
   0x1fff3e72:	d105    	bne.n	0x1fff3e80
   0x1fff3e74:	7883    	ldrb	r3, [r0, #2]
   0x1fff3e76:	0618    	lsls	r0, r3, #24
   0x1fff3e78:	d501    	bpl.n	0x1fff3e7e
   0x1fff3e7a:	76a3    	strb	r3, [r4, #26]
   0x1fff3e7c:	e000    	b.n	0x1fff3e80
   0x1fff3e7e:	76e3    	strb	r3, [r4, #27]
   0x1fff3e80:	1c52    	adds	r2, r2, #1
   0x1fff3e82:	7908    	ldrb	r0, [r1, #4]
   0x1fff3e84:	4290    	cmp	r0, r2
   0x1fff3e86:	d8ec    	bhi.n	0x1fff3e62
   0x1fff3e88:	7ea0    	ldrb	r0, [r4, #26]
   0x1fff3e8a:	2800    	cmp	r0, #0
   0x1fff3e8c:	d004    	beq.n	0x1fff3e98
   0x1fff3e8e:	7ee0    	ldrb	r0, [r4, #27]
   0x1fff3e90:	2800    	cmp	r0, #0
   0x1fff3e92:	d001    	beq.n	0x1fff3e98
   0x1fff3e94:	2e00    	cmp	r6, #0
   0x1fff3e96:	d002    	beq.n	0x1fff3e9e
   0x1fff3e98:	4807    	ldr	r0, [pc, #28]	@ (0x1fff3eb8)
   0x1fff3e9a:	1dc0    	adds	r0, r0, #7
   0x1fff3e9c:	bdfe    	pop	{r1, r2, r3, r4, r5, r6, r7, pc}
   0x1fff3e9e:	6c69    	ldr	r1, [r5, #68]	@ 0x44
   0x1fff3ea0:	4622    	mov	r2, r4
   0x1fff3ea2:	2900    	cmp	r1, #0
   0x1fff3ea4:	d100    	bne.n	0x1fff3ea8
   0x1fff3ea6:	4907    	ldr	r1, [pc, #28]	@ (0x1fff3ec4)
   0x1fff3ea8:	9800    	ldr	r0, [sp, #0]
   0x1fff3eaa:	f7fe fe04	bl	0x1fff2ab6
   0x1fff3eae:	9902    	ldr	r1, [sp, #8]
   0x1fff3eb0:	600c    	str	r4, [r1, #0]
   0x1fff3eb2:	bdfe    	pop	{r1, r2, r3, r4, r5, r6, r7, pc}
   0x1fff3eb4:	0003    	movs	r3, r0
   0x1fff3eb6:	0001    	movs	r1, r0
   0x1fff3eb8:	0002    	movs	r2, r0
   0x1fff3eba:	0004    	movs	r4, r0
   0x1fff3ebc:	3bf7    	subs	r3, #247	@ 0xf7
   0x1fff3ebe:	1fff    	subs	r7, r7, #7
   0x1fff3ec0:	3c4d    	subs	r4, #77	@ 0x4d
   0x1fff3ec2:	1fff    	subs	r7, r7, #7
   0x1fff3ec4:	3cdb    	subs	r4, #219	@ 0xdb
   0x1fff3ec6:	1fff    	subs	r7, r7, #7
   0x1fff3ec8:	b530    	push	{r4, r5, lr}
   0x1fff3eca:	460b    	mov	r3, r1
   0x1fff3ecc:	4601    	mov	r1, r0
   0x1fff3ece:	2000    	movs	r0, #0
   0x1fff3ed0:	2220    	movs	r2, #32
   0x1fff3ed2:	2401    	movs	r4, #1
   0x1fff3ed4:	e009    	b.n	0x1fff3eea
   0x1fff3ed6:	460d    	mov	r5, r1
   0x1fff3ed8:	40d5    	lsrs	r5, r2
   0x1fff3eda:	429d    	cmp	r5, r3
   0x1fff3edc:	d305    	bcc.n	0x1fff3eea
   0x1fff3ede:	461d    	mov	r5, r3
   0x1fff3ee0:	4095    	lsls	r5, r2
   0x1fff3ee2:	1b49    	subs	r1, r1, r5
   0x1fff3ee4:	4625    	mov	r5, r4
   0x1fff3ee6:	4095    	lsls	r5, r2
   0x1fff3ee8:	1940    	adds	r0, r0, r5
   0x1fff3eea:	4615    	mov	r5, r2
   0x1fff3eec:	1e52    	subs	r2, r2, #1
   0x1fff3eee:	2d00    	cmp	r5, #0
   0x1fff3ef0:	dcf1    	bgt.n	0x1fff3ed6
   0x1fff3ef2:	bd30    	pop	{r4, r5, pc}
   0x1fff3ef4:	4603    	mov	r3, r0
   0x1fff3ef6:	430b    	orrs	r3, r1
   0x1fff3ef8:	079b    	lsls	r3, r3, #30
   0x1fff3efa:	d003    	beq.n	0x1fff3f04
   0x1fff3efc:	e009    	b.n	0x1fff3f12
   0x1fff3efe:	c908    	ldmia	r1!, {r3}
   0x1fff3f00:	1f12    	subs	r2, r2, #4
   0x1fff3f02:	c008    	stmia	r0!, {r3}
   0x1fff3f04:	2a04    	cmp	r2, #4
   0x1fff3f06:	d2fa    	bcs.n	0x1fff3efe
   0x1fff3f08:	e003    	b.n	0x1fff3f12
   0x1fff3f0a:	780b    	ldrb	r3, [r1, #0]
   0x1fff3f0c:	1c49    	adds	r1, r1, #1
   0x1fff3f0e:	7003    	strb	r3, [r0, #0]
   0x1fff3f10:	1c40    	adds	r0, r0, #1
   0x1fff3f12:	1e52    	subs	r2, r2, #1
   0x1fff3f14:	d2f9    	bcs.n	0x1fff3f0a
   0x1fff3f16:	4770    	bx	lr
   0x1fff3f18:	b2d2    	uxtb	r2, r2
   0x1fff3f1a:	e001    	b.n	0x1fff3f20
   0x1fff3f1c:	7002    	strb	r2, [r0, #0]
   0x1fff3f1e:	1c40    	adds	r0, r0, #1
   0x1fff3f20:	1e49    	subs	r1, r1, #1
   0x1fff3f22:	d2fb    	bcs.n	0x1fff3f1c
   0x1fff3f24:	4770    	bx	lr
   0x1fff3f26:	2200    	movs	r2, #0
   0x1fff3f28:	e7f6    	b.n	0x1fff3f18
   0x1fff3f2a:	b510    	push	{r4, lr}
   0x1fff3f2c:	4604    	mov	r4, r0
   0x1fff3f2e:	4608    	mov	r0, r1
   0x1fff3f30:	4611    	mov	r1, r2
   0x1fff3f32:	4602    	mov	r2, r0
   0x1fff3f34:	4620    	mov	r0, r4
   0x1fff3f36:	f7ff ffef	bl	0x1fff3f18
   0x1fff3f3a:	4620    	mov	r0, r4
   0x1fff3f3c:	bd10    	pop	{r4, pc}
   0x1fff3f3e:	b530    	push	{r4, r5, lr}
   0x1fff3f40:	4604    	mov	r4, r0
   0x1fff3f42:	2000    	movs	r0, #0
   0x1fff3f44:	4603    	mov	r3, r0
   0x1fff3f46:	e000    	b.n	0x1fff3f4a
   0x1fff3f48:	1c5b    	adds	r3, r3, #1
   0x1fff3f4a:	4293    	cmp	r3, r2
   0x1fff3f4c:	d203    	bcs.n	0x1fff3f56
   0x1fff3f4e:	5ce0    	ldrb	r0, [r4, r3]
   0x1fff3f50:	5ccd    	ldrb	r5, [r1, r3]
   0x1fff3f52:	1b40    	subs	r0, r0, r5
   0x1fff3f54:	d0f8    	beq.n	0x1fff3f48
   0x1fff3f56:	bd30    	pop	{r4, r5, pc}
   0x1fff3f58:	1d00    	adds	r0, r0, #4
   0x1fff3f5a:	2103    	movs	r1, #3
   0x1fff3f5c:	1e40    	subs	r0, r0, #1
   0x1fff3f5e:	7803    	ldrb	r3, [r0, #0]
   0x1fff3f60:	0212    	lsls	r2, r2, #8
   0x1fff3f62:	431a    	orrs	r2, r3
   0x1fff3f64:	1e49    	subs	r1, r1, #1
   0x1fff3f66:	d5f9    	bpl.n	0x1fff3f5c
   0x1fff3f68:	4610    	mov	r0, r2
   0x1fff3f6a:	4770    	bx	lr
   0x1fff3f6c:	4603    	mov	r3, r0
   0x1fff3f6e:	2203    	movs	r2, #3
   0x1fff3f70:	7008    	strb	r0, [r1, #0]
   0x1fff3f72:	1c49    	adds	r1, r1, #1
   0x1fff3f74:	0a00    	lsrs	r0, r0, #8
   0x1fff3f76:	1e52    	subs	r2, r2, #1
   0x1fff3f78:	d5fa    	bpl.n	0x1fff3f70
   0x1fff3f7a:	4618    	mov	r0, r3
   0x1fff3f7c:	4770    	bx	lr
   0x1fff3f7e:	3ceb    	subs	r4, #235	@ 0xeb
   0x1fff3f80:	4d90    	ldr	r5, [pc, #576]	@ (0x1fff41c4)
   0x1fff3f82:	4453    	add	r3, r10
   0x1fff3f84:	534f    	strh	r7, [r1, r5]
   0x1fff3f86:	2e35    	cmp	r6, #53	@ 0x35
   0x1fff3f88:	0030    	movs	r0, r6
   0x1fff3f8a:	0202    	lsls	r2, r0, #8
   0x1fff3f8c:	0001    	movs	r1, r0
   0x1fff3f8e:	1001    	asrs	r1, r0, #32
   0x1fff3f90:	ec00 f803	stc	8, cr15, [r0], {3}
   0x1fff3f94:	0002    	movs	r2, r0
   0x1fff3f96:	0001    	movs	r1, r0
   0x1fff3f98:	0001    	movs	r1, r0
   0x1fff3f9a:	0000    	movs	r0, r0
   0x1fff3f9c:	5243    	strh	r3, [r0, r1]
   0x1fff3f9e:	2050    	movs	r0, #80	@ 0x50
   0x1fff3fa0:	4944    	ldr	r1, [pc, #272]	@ (0x1fff40b4)
   0x1fff3fa2:	4153    	adcs	r3, r2
   0x1fff3fa4:	4c42    	ldr	r4, [pc, #264]	@ (0x1fff40b0)
   0x1fff3fa6:	2844    	cmp	r0, #68	@ 0x44
   0x1fff3fa8:	0000    	movs	r0, r0
   0x1fff3faa:	0000    	movs	r0, r0
   0x1fff3fac:	0000    	movs	r0, r0
   0x1fff3fae:	0000    	movs	r0, r0
   0x1fff3fb0:	0000    	movs	r0, r0
   0x1fff3fb2:	0000    	movs	r0, r0
   0x1fff3fb4:	0000    	movs	r0, r0
   0x1fff3fb6:	0000    	movs	r0, r0
   0x1fff3fb8:	0000    	movs	r0, r0
   0x1fff3fba:	0000    	movs	r0, r0
   0x1fff3fbc:	4946    	ldr	r1, [pc, #280]	@ (0x1fff40d8)
   0x1fff3fbe:	4d52    	ldr	r5, [pc, #328]	@ (0x1fff4108)
   0x1fff3fc0:	4157    	adcs	r7, r2
   0x1fff3fc2:	4552    	cmp	r2, r10
   0x1fff3fc4:	4942    	ldr	r1, [pc, #264]	@ (0x1fff40d0)
   0x1fff3fc6:	204e    	movs	r0, #78	@ 0x4e
   0x1fff3fc8:	bc18    	pop	{r3, r4}
   0x1fff3fca:	9741    	str	r7, [sp, #260]	@ 0x104
   0x1fff3fcc:	3837    	subs	r0, #55	@ 0x37
   0x1fff3fce:	3837    	subs	r0, #55	@ 0x37
   0x1fff3fd0:	0000    	movs	r0, r0
   0x1fff3fd2:	5145    	str	r5, [r0, r5]
   0x1fff3fd4:	3a46    	subs	r2, #70	@ 0x46
   0x1fff3fd6:	0002    	movs	r2, r0
   0x1fff3fd8:	8000    	strh	r0, [r0, #0]
   0x1fff3fda:	0000    	movs	r0, r0
   0x1fff3fdc:	4520    	cmp	r0, r4
   0x1fff3fde:	414e    	adcs	r6, r1
   0x1fff3fe0:	4c42    	ldr	r4, [pc, #264]	@ (0x1fff40ec)
   0x1fff3fe2:	0044    	lsls	r4, r0, #1
   0x1fff3fe4:	ffff ffff			@ <UNDEFINED> instruction: 0xffffffff
   0x1fff3fe8:	ffff ffff			@ <UNDEFINED> instruction: 0xffffffff
   0x1fff3fec:	ffff ffff			@ <UNDEFINED> instruction: 0xffffffff
   0x1fff3ff0:	ffff ffff			@ <UNDEFINED> instruction: 0xffffffff
   0x1fff3ff4:	ffff ffff			@ <UNDEFINED> instruction: 0xffffffff
   0x1fff3ff8:	ffff ffff			@ <UNDEFINED> instruction: 0xffffffff
   0x1fff3ffc:	0702    	lsls	r2, r0, #28
   0x1fff3ffe:	0000    	movs	r0, r0
End of assembler dump.
(gdb) A debugging session is active.

	Inferior 1 [Remote target] will be detached.

Quit anyway? (y or n) [answered Y; input not from terminal]
Detaching from pid Remote target
Ending remote debugging.
[Inferior 1 (Remote target) detached]

vim: set foldmethod=marker :
